(iffield
LUT
p1
(dp2
S'divLUT'
p3
(lp4
(lp5
S'NaN'
p6
ag6
ag6
ag6
ag6
ag6
ag6
ag6
ag6
ag6
ag6
ag6
ag6
ag6
ag6
ag6
ag6
ag6
ag6
ag6
ag6
ag6
ag6
ag6
ag6
ag6
ag6
ag6
ag6
ag6
ag6
ag6
ag6
ag6
ag6
ag6
ag6
ag6
ag6
ag6
ag6
ag6
ag6
ag6
ag6
ag6
ag6
ag6
ag6
ag6
ag6
ag6
ag6
ag6
ag6
ag6
ag6
ag6
ag6
ag6
ag6
ag6
ag6
ag6
ag6
ag6
ag6
ag6
ag6
ag6
ag6
ag6
ag6
ag6
ag6
ag6
ag6
ag6
ag6
ag6
ag6
ag6
ag6
ag6
ag6
ag6
ag6
ag6
ag6
ag6
ag6
ag6
ag6
ag6
ag6
ag6
ag6
ag6
ag6
ag6
ag6
ag6
ag6
ag6
ag6
ag6
ag6
ag6
ag6
ag6
ag6
ag6
ag6
ag6
ag6
ag6
ag6
ag6
ag6
ag6
ag6
ag6
ag6
ag6
ag6
ag6
ag6
ag6
aa(lp7
I0
aI1
aI65
aI126
aI97
aI42
aI63
aI54
aI113
aI18
aI21
aI74
aI94
aI79
aI27
aI103
aI121
aI92
aI9
aI112
aI75
aI10
aI37
aI68
aI47
aI35
aI102
aI14
aI76
aI71
aI114
aI110
aI125
aI91
aI46
aI25
aI69
aI22
aI56
aI61
aI100
aI119
aI5
aI96
aI83
aI123
aI34
aI24
aI86
aI116
aI80
aI52
aI51
aI81
aI7
aI62
aI38
aI60
aI98
aI73
aI57
aI39
aI55
aI6
aI127
aI2
aI108
aI84
aI23
aI36
aI77
aI29
aI99
aI59
aI11
aI20
aI28
aI70
aI95
aI13
aI50
aI53
aI122
aI44
aI67
aI109
aI48
aI117
aI104
aI107
aI124
aI33
aI17
aI120
aI12
aI78
aI43
aI4
aI58
aI72
aI40
aI118
aI26
aI15
aI88
aI106
aI105
aI89
aI66
aI85
aI31
aI115
aI19
aI8
aI30
aI111
aI49
aI87
aI101
aI41
aI93
aI16
aI82
aI45
aI90
aI32
aI3
aI64
aa(lp8
I0
aI2
aI1
aI127
aI65
aI84
aI126
aI108
aI97
aI36
aI42
aI23
aI63
aI29
aI54
aI77
aI113
aI59
aI18
aI99
aI21
aI20
aI74
aI11
aI94
aI70
aI79
aI28
aI27
aI13
aI103
aI95
aI121
aI53
aI92
aI50
aI9
aI44
aI112
aI122
aI75
aI109
aI10
aI67
aI37
aI117
aI68
aI48
aI47
aI107
aI35
aI104
aI102
aI33
aI14
aI124
aI76
aI120
aI71
aI17
aI114
aI78
aI110
aI12
aI125
aI4
aI91
aI43
aI46
aI72
aI25
aI58
aI69
aI118
aI22
aI40
aI56
aI15
aI61
aI26
aI100
aI106
aI119
aI88
aI5
aI89
aI96
aI105
aI83
aI85
aI123
aI66
aI34
aI115
aI24
aI31
aI86
aI8
aI116
aI19
aI80
aI111
aI52
aI30
aI51
aI87
aI81
aI49
aI7
aI41
aI62
aI101
aI38
aI16
aI60
aI93
aI98
aI45
aI73
aI82
aI57
aI32
aI39
aI90
aI55
aI64
aI6
aI3
aa(lp9
I0
aI3
aI64
aI1
aI32
aI126
aI65
aI90
aI16
aI54
aI63
aI93
aI97
aI82
aI45
aI42
aI8
aI103
aI27
aI19
aI94
aI30
aI111
aI79
aI113
aI101
aI41
aI18
aI87
aI74
aI21
aI49
aI4
aI110
aI114
aI43
aI76
aI58
aI72
aI71
aI47
aI26
aI15
aI35
aI118
aI14
aI102
aI40
aI121
aI31
aI115
aI92
aI85
aI112
aI9
aI66
aI106
aI68
aI37
aI88
aI75
aI105
aI89
aI10
aI2
aI6
aI55
aI127
aI57
aI108
aI84
aI39
aI38
aI77
aI29
aI60
aI36
aI73
aI98
aI23
aI86
aI95
aI13
aI116
aI70
aI52
aI80
aI28
aI59
aI62
aI7
aI99
aI51
aI11
aI20
aI81
aI125
aI12
aI78
aI91
aI120
aI25
aI46
aI17
aI107
aI61
aI56
aI104
aI69
aI124
aI33
aI22
aI53
aI24
aI34
aI50
aI83
aI122
aI44
aI123
aI100
aI48
aI117
aI119
aI109
aI96
aI5
aI67
aa(lp10
I0
aI4
aI2
aI125
aI1
aI43
aI127
aI91
aI65
aI72
aI84
aI46
aI126
aI58
aI108
aI25
aI97
aI118
aI36
aI69
aI42
aI40
aI23
aI22
aI63
aI15
aI29
aI56
aI54
aI26
aI77
aI61
aI113
aI106
aI59
aI100
aI18
aI88
aI99
aI119
aI21
aI89
aI20
aI5
aI74
aI105
aI11
aI96
aI94
aI85
aI70
aI83
aI79
aI66
aI28
aI123
aI27
aI115
aI13
aI34
aI103
aI31
aI95
aI24
aI121
aI8
aI53
aI86
aI92
aI19
aI50
aI116
aI9
aI111
aI44
aI80
aI112
aI30
aI122
aI52
aI75
aI87
aI109
aI51
aI10
aI49
aI67
aI81
aI37
aI41
aI117
aI7
aI68
aI101
aI48
aI62
aI47
aI16
aI107
aI38
aI35
aI93
aI104
aI60
aI102
aI45
aI33
aI98
aI14
aI82
aI124
aI73
aI76
aI32
aI120
aI57
aI71
aI90
aI17
aI39
aI114
aI64
aI78
aI55
aI110
aI3
aI12
aI6
aa(lp11
I0
aI5
aI67
aI3
aI96
aI1
aI64
aI109
aI48
aI90
aI65
aI100
aI32
aI117
aI119
aI126
aI24
aI42
aI45
aI53
aI97
aI34
aI50
aI82
aI16
aI44
aI123
aI54
aI122
aI93
aI63
aI83
aI12
aI49
aI21
aI125
aI87
aI78
aI91
aI74
aI113
aI46
aI17
aI101
aI25
aI18
aI41
aI120
aI8
aI33
aI22
aI103
aI124
aI19
aI27
aI69
aI61
aI79
aI111
aI107
aI94
aI56
aI104
aI30
aI6
aI10
aI89
aI2
aI75
aI55
aI127
aI105
aI106
aI84
aI39
aI68
aI108
aI88
aI37
aI57
aI121
aI98
aI23
aI31
aI73
aI92
aI115
aI36
aI77
aI66
aI9
aI38
aI85
aI29
aI60
aI112
aI4
aI20
aI81
aI110
aI11
aI43
aI114
aI51
aI62
aI71
aI72
aI59
aI76
aI7
aI99
aI58
aI95
aI40
aI102
aI86
aI118
aI13
aI116
aI14
aI47
aI80
aI28
aI26
aI52
aI35
aI15
aI70
aa(lp12
I0
aI6
aI3
aI2
aI64
aI127
aI1
aI55
aI32
aI108
aI126
aI57
aI65
aI39
aI90
aI84
aI16
aI77
aI54
aI38
aI63
aI60
aI93
aI29
aI97
aI73
aI82
aI36
aI45
aI23
aI42
aI98
aI8
aI95
aI103
aI86
aI27
aI116
aI19
aI13
aI94
aI52
aI30
aI70
aI111
aI28
aI79
aI80
aI113
aI62
aI101
aI59
aI41
aI99
aI18
aI7
aI87
aI11
aI74
aI51
aI21
aI81
aI49
aI20
aI4
aI12
aI110
aI125
aI114
aI91
aI43
aI78
aI76
aI25
aI58
aI120
aI72
aI17
aI71
aI46
aI47
aI61
aI26
aI107
aI15
aI104
aI35
aI56
aI118
aI124
aI14
aI69
aI102
aI22
aI40
aI33
aI121
aI24
aI31
aI53
aI115
aI50
aI92
aI34
aI85
aI122
aI112
aI83
aI9
aI123
aI66
aI44
aI106
aI48
aI68
aI100
aI37
aI119
aI88
aI117
aI75
aI96
aI105
aI109
aI89
aI67
aI10
aI5
aa(lp13
I0
aI7
aI66
aI124
aI33
aI85
aI62
aI1
aI81
aI126
aI107
aI115
aI31
aI104
aI65
aI51
aI105
aI17
aI63
aI86
aI116
aI54
aI120
aI89
aI78
aI106
aI52
aI42
aI97
aI80
aI88
aI12
aI117
aI4
aI73
aI79
aI94
aI98
aI43
aI48
aI58
aI67
aI27
aI38
aI60
aI103
aI109
aI72
aI39
aI74
aI53
aI15
aI26
aI50
aI21
aI57
aI113
aI55
aI40
aI122
aI44
aI118
aI6
aI18
aI123
aI14
aI2
aI41
aI101
aI127
aI102
aI83
aI47
aI34
aI49
aI108
aI84
aI87
aI24
aI35
aI29
aI8
aI96
aI71
aI76
aI5
aI19
aI77
aI30
aI23
aI114
aI100
aI119
aI110
aI36
aI111
aI82
aI28
aI37
aI125
aI91
aI68
aI70
aI45
aI13
aI16
aI25
aI10
aI75
aI46
aI93
aI95
aI121
aI56
aI90
aI11
aI20
aI32
aI61
aI92
aI22
aI112
aI59
aI64
aI3
aI99
aI9
aI69
aa(lp14
I0
aI8
aI4
aI121
aI2
aI86
aI125
aI53
aI1
aI19
aI43
aI92
aI127
aI116
aI91
aI50
aI65
aI111
aI72
aI9
aI84
aI80
aI46
aI44
aI126
aI30
aI58
aI112
aI108
aI52
aI25
aI122
aI97
aI87
aI118
aI75
aI36
aI51
aI69
aI109
aI42
aI49
aI40
aI10
aI23
aI81
aI22
aI67
aI63
aI41
aI15
aI37
aI29
aI7
aI56
aI117
aI54
aI101
aI26
aI68
aI77
aI62
aI61
aI48
aI113
aI16
aI106
aI47
aI59
aI38
aI100
aI107
aI18
aI93
aI88
aI35
aI99
aI60
aI119
aI104
aI21
aI45
aI89
aI102
aI20
aI98
aI5
aI33
aI74
aI82
aI105
aI14
aI11
aI73
aI96
aI124
aI94
aI32
aI85
aI76
aI70
aI57
aI83
aI120
aI79
aI90
aI66
aI71
aI28
aI39
aI123
aI17
aI27
aI64
aI115
aI114
aI13
aI55
aI34
aI78
aI103
aI3
aI31
aI110
aI95
aI6
aI24
aI12
aa(lp15
I0
aI9
aI69
aI7
aI99
aI124
aI66
aI3
aI112
aI1
aI62
aI22
aI33
aI59
aI64
aI85
aI56
aI51
aI65
aI121
aI31
aI90
aI11
aI104
aI81
aI61
aI92
aI126
aI32
aI115
aI107
aI20
aI28
aI12
aI88
aI82
aI97
aI37
aI125
aI80
aI78
aI70
aI45
aI106
aI68
aI42
aI52
aI91
aI105
aI93
aI95
aI17
aI46
aI86
aI63
aI75
aI16
aI89
aI120
aI13
aI116
aI25
aI10
aI54
aI14
aI18
aI6
aI123
aI44
aI2
aI41
aI118
aI113
aI102
aI83
aI55
aI127
aI122
aI40
aI101
aI39
aI24
aI35
aI74
aI87
aI15
aI53
aI84
aI34
aI57
aI21
aI47
aI26
aI49
aI108
aI50
aI117
aI36
aI111
aI4
aI110
aI79
aI73
aI119
aI23
aI48
aI43
aI30
aI94
aI114
aI100
aI98
aI8
aI72
aI109
aI29
aI60
aI96
aI71
aI103
aI58
aI19
aI77
aI67
aI5
aI38
aI27
aI76
aa(lp16
I0
aI10
aI5
aI6
aI67
aI2
aI3
aI89
aI96
aI55
aI1
aI75
aI64
aI105
aI109
aI127
aI48
aI84
aI90
aI106
aI65
aI68
aI100
aI39
aI32
aI88
aI117
aI108
aI119
aI57
aI126
aI37
aI24
aI98
aI42
aI121
aI45
aI31
aI53
aI23
aI97
aI92
aI34
aI73
aI50
aI36
aI82
aI115
aI16
aI66
aI44
aI77
aI123
aI38
aI54
aI9
aI122
aI29
aI93
aI85
aI63
aI112
aI83
aI60
aI12
aI20
aI49
aI4
aI21
aI110
aI125
aI81
aI87
aI43
aI78
aI11
aI91
aI51
aI74
aI114
aI113
aI71
aI46
aI62
aI17
aI59
aI101
aI72
aI25
aI7
aI18
aI76
aI41
aI58
aI120
aI99
aI8
aI40
aI33
aI95
aI22
aI86
aI103
aI102
aI124
aI13
aI19
aI118
aI27
aI14
aI69
aI116
aI61
aI80
aI79
aI47
aI111
aI26
aI107
aI28
aI94
aI35
aI56
aI52
aI104
aI70
aI30
aI15
aa(lp17
I0
aI11
aI68
aI120
aI34
aI40
aI60
aI111
aI17
aI37
aI20
aI1
aI30
aI38
aI118
aI24
aI73
aI8
aI83
aI26
aI10
aI78
aI65
aI99
aI15
aI123
aI19
aI98
aI59
aI126
aI12
aI75
aI101
aI57
aI4
aI96
aI104
aI9
aI13
aI42
aI5
aI43
aI39
aI41
aI97
aI95
aI112
aI107
aI70
aI54
aI124
aI121
aI72
aI119
aI49
aI55
aI92
aI33
aI63
aI28
aI6
aI87
aI100
aI58
aI115
aI22
aI93
aI80
aI2
aI74
aI48
aI76
aI52
aI16
aI69
aI31
aI71
aI117
aI21
aI127
aI67
aI114
aI84
aI18
aI82
aI86
aI85
aI61
aI113
aI108
aI110
aI109
aI56
aI66
aI116
aI45
aI35
aI44
aI27
aI23
aI62
aI32
aI125
aI105
aI36
aI103
aI122
aI47
aI89
aI91
aI90
aI7
aI46
aI88
aI81
aI64
aI94
aI77
aI14
aI53
aI3
aI51
aI106
aI25
aI50
aI102
aI29
aI79
aa(lp18
I0
aI12
aI6
aI4
aI3
aI125
aI2
aI110
aI64
aI91
aI127
aI114
aI1
aI78
aI55
aI43
aI32
aI25
aI108
aI76
aI126
aI120
aI57
aI58
aI65
aI17
aI39
aI72
aI90
aI46
aI84
aI71
aI16
aI61
aI77
aI47
aI54
aI107
aI38
aI26
aI63
aI104
aI60
aI15
aI93
aI56
aI29
aI35
aI97
aI124
aI73
aI118
aI82
aI69
aI36
aI14
aI45
aI22
aI23
aI102
aI42
aI33
aI98
aI40
aI8
aI24
aI95
aI121
aI103
aI53
aI86
aI31
aI27
aI50
aI116
aI115
aI19
aI34
aI13
aI92
aI94
aI122
aI52
aI85
aI30
aI83
aI70
aI112
aI111
aI123
aI28
aI9
aI79
aI44
aI80
aI66
aI113
aI48
aI62
aI106
aI101
aI100
aI59
aI68
aI41
aI119
aI99
aI37
aI18
aI117
aI7
aI88
aI87
aI96
aI11
aI75
aI74
aI109
aI51
aI105
aI21
aI67
aI81
aI89
aI49
aI5
aI20
aI10
aa(lp19
I0
aI13
aI71
aI122
aI98
aI87
aI61
aI88
aI49
aI73
aI106
aI56
aI95
aI1
aI44
aI76
aI89
aI69
aI101
aI60
aI53
aI114
aI28
aI126
aI110
aI50
aI65
aI70
aI22
aI105
aI38
aI41
aI109
aI102
aI99
aI54
aI115
aI125
aI30
aI39
aI91
aI31
aI57
aI111
aI14
aI67
aI63
aI59
aI55
aI8
aI25
aI66
aI97
aI20
aI35
aI48
aI11
aI42
aI117
aI47
aI19
aI6
aI85
aI46
aI119
aI26
aI51
aI45
aI112
aI17
aI27
aI2
aI120
aI9
aI127
aI103
aI15
aI100
aI82
aI81
aI108
aI79
aI78
aI121
aI93
aI62
aI118
aI5
aI7
aI16
aI96
aI40
aI94
aI84
aI92
aI12
aI90
aI52
aI4
aI34
aI77
aI18
aI33
aI75
aI113
aI29
aI10
aI124
aI80
aI32
aI24
aI43
aI68
aI104
aI21
aI36
aI123
aI58
aI86
aI64
aI72
aI83
aI3
aI116
aI107
aI37
aI23
aI74
aa(lp20
I0
aI14
aI7
aI123
aI66
aI41
aI124
aI2
aI33
aI127
aI85
aI101
aI62
aI83
aI1
aI102
aI81
aI34
aI126
aI47
aI107
aI108
aI115
aI49
aI31
aI87
aI104
aI84
aI65
aI35
aI51
aI24
aI105
aI8
aI17
aI29
aI63
aI71
aI86
aI96
aI116
aI5
aI54
aI76
aI120
aI77
aI89
aI19
aI78
aI23
aI106
aI30
aI52
aI100
aI42
aI114
aI97
aI110
aI80
aI119
aI88
aI111
aI12
aI36
aI117
aI28
aI4
aI82
aI73
aI125
aI79
aI37
aI94
aI68
aI98
aI91
aI43
aI45
aI48
aI70
aI58
aI16
aI67
aI13
aI27
aI10
aI38
aI25
aI60
aI46
aI103
aI75
aI109
aI95
aI72
aI93
aI39
aI56
aI74
aI121
aI53
aI11
aI15
aI90
aI26
aI32
aI50
aI20
aI21
aI92
aI57
aI61
aI113
aI112
aI55
aI22
aI40
aI64
aI122
aI59
aI44
aI99
aI118
aI3
aI6
aI69
aI18
aI9
aa(lp21
I0
aI15
aI70
aI5
aI35
aI3
aI67
aI52
aI80
aI109
aI64
aI47
aI96
aI28
aI26
aI1
aI40
aI126
aI119
aI95
aI32
aI102
aI86
aI117
aI48
aI116
aI14
aI90
aI13
aI100
aI65
aI118
aI20
aI83
aI63
aI4
aI122
aI81
aI110
aI93
aI16
aI114
aI51
aI44
aI43
aI54
aI123
aI11
aI24
aI99
aI58
aI42
aI7
aI53
aI45
aI76
aI71
aI82
aI50
aI62
aI97
aI72
aI59
aI34
aI10
aI30
aI104
aI6
aI94
aI89
aI2
aI56
aI61
aI127
aI105
aI79
aI55
aI107
aI111
aI75
aI8
aI37
aI57
aI33
aI88
aI103
aI22
aI108
aI84
aI69
aI27
aI106
aI124
aI39
aI68
aI19
aI12
aI60
aI112
aI49
aI29
aI125
aI21
aI85
aI66
aI74
aI91
aI77
aI87
aI9
aI38
aI78
aI98
aI120
aI41
aI121
aI25
aI23
aI31
aI18
aI113
aI115
aI36
aI46
aI92
aI101
aI17
aI73
aa(lp22
I0
aI16
aI8
aI113
aI4
aI47
aI121
aI106
aI2
aI38
aI86
aI59
aI125
aI107
aI53
aI100
aI1
aI93
aI19
aI18
aI43
aI35
aI92
aI88
aI127
aI60
aI116
aI99
aI91
aI104
aI50
aI119
aI65
aI45
aI111
aI21
aI72
aI102
aI9
aI89
aI84
aI98
aI80
aI20
aI46
aI33
aI44
aI5
aI126
aI82
aI30
aI74
aI58
aI14
aI112
aI105
aI108
aI73
aI52
aI11
aI25
aI124
aI122
aI96
aI97
aI32
aI87
aI94
aI118
aI76
aI75
aI85
aI36
aI57
aI51
aI70
aI69
aI120
aI109
aI83
aI42
aI90
aI49
aI79
aI40
aI71
aI10
aI66
aI23
aI39
aI81
aI28
aI22
aI17
aI67
aI123
aI63
aI64
aI41
aI27
aI15
aI114
aI37
aI115
aI29
aI55
aI7
aI13
aI56
aI78
aI117
aI34
aI54
aI3
aI101
aI103
aI26
aI110
aI68
aI31
aI77
aI6
aI62
aI95
aI61
aI12
aI48
aI24
aa(lp23
I0
aI17
aI73
aI15
aI101
aI5
aI70
aI92
aI115
aI52
aI67
aI113
aI35
aI36
aI46
aI3
aI120
aI1
aI26
aI98
aI96
aI41
aI121
aI28
aI80
aI31
aI18
aI109
aI23
aI47
aI64
aI25
aI60
aI118
aI65
aI12
aI13
aI112
aI49
aI100
aI48
aI21
aI85
aI116
aI125
aI90
aI14
aI29
aI40
aI38
aI78
aI126
aI9
aI95
aI119
aI87
aI74
aI117
aI86
aI66
aI32
aI91
aI77
aI102
aI30
aI34
aI59
aI10
aI97
aI104
aI6
aI72
aI71
aI2
aI56
aI82
aI89
aI62
aI50
aI94
aI24
aI111
aI75
aI99
aI107
aI42
aI58
aI55
aI127
aI76
aI45
aI61
aI7
aI105
aI79
aI53
aI20
aI68
aI19
aI83
aI39
aI4
aI63
aI124
aI69
aI93
aI110
aI84
aI122
aI27
aI106
aI81
aI37
aI11
aI123
aI8
aI43
aI57
aI33
aI54
aI16
aI22
aI108
aI114
aI103
aI44
aI51
aI88
aa(lp24
I0
aI18
aI9
aI14
aI69
aI123
aI7
aI6
aI99
aI2
aI124
aI44
aI66
aI118
aI3
aI41
aI112
aI102
aI1
aI113
aI62
aI55
aI22
aI83
aI33
aI122
aI59
aI127
aI64
aI101
aI85
aI40
aI56
aI24
aI51
aI39
aI65
aI74
aI121
aI35
aI31
aI15
aI90
aI87
aI11
aI84
aI104
aI53
aI81
aI57
aI61
aI34
aI92
aI47
aI126
aI21
aI32
aI49
aI115
aI26
aI107
aI50
aI20
aI108
aI28
aI36
aI12
aI117
aI88
aI4
aI82
aI111
aI97
aI79
aI37
aI110
aI125
aI119
aI80
aI73
aI78
aI48
aI70
aI23
aI45
aI30
aI106
aI43
aI68
aI114
aI42
aI94
aI52
aI98
aI91
aI100
aI105
aI72
aI93
aI8
aI95
aI29
aI17
aI109
aI46
aI96
aI86
aI60
aI63
aI103
aI75
aI71
aI16
aI19
aI89
aI58
aI120
aI67
aI13
aI77
aI116
aI38
aI25
aI5
aI10
aI76
aI54
aI27
aa(lp25
I0
aI19
aI72
aI112
aI36
aI81
aI56
aI48
aI18
aI16
aI105
aI102
aI28
aI57
aI24
aI78
aI9
aI58
aI8
aI1
aI117
aI61
aI51
aI23
aI14
aI89
aI93
aI113
aI12
aI34
aI39
aI70
aI69
aI67
aI29
aI62
aI4
aI92
aI65
aI30
aI123
aI120
aI95
aI55
aI88
aI47
aI74
aI45
aI7
aI77
aI109
aI22
aI111
aI126
aI121
aI43
aI6
aI13
aI17
aI83
aI82
aI21
aI35
aI106
aI99
aI38
aI96
aI33
aI79
aI32
aI31
aI114
aI2
aI116
aI46
aI122
aI97
aI49
aI15
aI68
aI124
aI5
aI60
aI59
aI110
aI115
aI90
aI94
aI44
aI25
aI86
aI127
aI37
aI26
aI87
aI42
aI66
aI76
aI103
aI64
aI119
aI107
aI11
aI98
aI118
aI10
aI63
aI101
aI125
aI50
aI84
aI52
aI3
aI27
aI71
aI85
aI73
aI20
aI104
aI100
aI41
aI54
aI75
aI40
aI80
aI108
aI53
aI91
aa(lp26
I0
aI20
aI10
aI12
aI5
aI4
aI6
aI49
aI67
aI110
aI2
aI21
aI3
aI81
aI89
aI125
aI96
aI43
aI55
aI87
aI1
aI11
aI75
aI78
aI64
aI51
aI105
aI91
aI109
aI114
aI127
aI74
aI48
aI71
aI84
aI113
aI90
aI62
aI106
aI46
aI65
aI59
aI68
aI17
aI100
aI72
aI39
aI101
aI32
aI7
aI88
aI25
aI117
aI76
aI108
aI18
aI119
aI58
aI57
aI41
aI126
aI99
aI37
aI120
aI24
aI40
aI98
aI8
aI42
aI95
aI121
aI33
aI45
aI86
aI31
aI22
aI53
aI102
aI23
aI103
aI97
aI13
aI92
aI124
aI34
aI118
aI73
aI19
aI50
aI14
aI36
aI27
aI82
aI116
aI115
aI69
aI16
aI80
aI66
aI61
aI44
aI47
aI77
aI79
aI123
aI26
aI38
aI111
aI54
aI28
aI9
aI107
aI122
aI35
aI29
aI94
aI93
aI52
aI85
aI56
aI63
aI70
aI112
aI104
aI83
aI15
aI60
aI30
aa(lp27
I0
aI21
aI75
aI114
aI100
aI46
aI57
aI7
aI50
aI124
aI23
aI95
aI93
aI30
aI66
aI26
aI25
aI119
aI62
aI39
aI74
aI1
aI110
aI10
aI111
aI16
aI15
aI85
aI33
aI53
aI13
aI36
aI77
aI28
aI122
aI104
aI31
aI40
aI82
aI19
aI37
aI76
aI65
aI113
aI55
aI51
aI5
aI125
aI118
aI115
aI8
aI45
aI70
aI29
aI107
aI44
aI81
aI6
aI91
aI96
aI71
aI68
aI18
aI126
aI103
aI42
aI14
aI92
aI61
aI123
aI52
aI60
aI78
aI109
aI20
aI2
aI41
aI32
aI72
aI106
aI83
aI56
aI38
aI80
aI97
aI27
aI121
aI102
aI90
aI101
aI88
aI58
aI67
aI12
aI127
aI11
aI59
aI84
aI120
aI117
aI4
aI89
aI87
aI64
aI35
aI112
aI79
aI54
aI116
aI73
aI22
aI24
aI105
aI43
aI3
aI49
aI108
aI99
aI48
aI17
aI98
aI86
aI34
aI69
aI9
aI47
aI63
aI94
aa(lp28
I0
aI22
aI11
aI115
aI68
aI80
aI120
aI93
aI34
aI74
aI40
aI2
aI60
aI76
aI111
aI48
aI17
aI16
aI37
aI52
aI20
aI31
aI1
aI69
aI30
aI117
aI38
aI71
aI118
aI127
aI24
aI21
aI73
aI114
aI8
aI67
aI83
aI18
aI26
aI84
aI10
aI86
aI78
aI82
aI65
aI61
aI99
aI85
aI15
aI108
aI123
aI113
aI19
aI109
aI98
aI110
aI59
aI66
aI126
aI56
aI12
aI45
aI75
aI116
aI101
aI44
aI57
aI35
aI4
aI23
aI96
aI27
aI104
aI32
aI9
aI62
aI13
aI105
aI42
aI125
aI5
aI103
aI43
aI36
aI39
aI47
aI41
aI122
aI97
aI91
aI95
aI89
aI112
aI7
aI107
aI90
aI70
aI88
aI54
aI46
aI124
aI64
aI121
aI81
aI72
aI77
aI119
aI94
aI49
aI53
aI55
aI14
aI92
aI51
aI33
aI3
aI63
aI25
aI28
aI106
aI6
aI102
aI87
aI50
aI100
aI79
aI58
aI29
aa(lp29
I0
aI23
aI74
aI13
aI37
aI122
aI71
aI107
aI83
aI88
aI61
aI72
aI98
aI3
aI116
aI87
aI104
aI76
aI44
aI68
aI95
aI21
aI36
aI1
aI49
aI86
aI64
aI73
aI58
aI56
aI106
aI123
aI52
aI41
aI38
aI90
aI22
aI4
aI34
aI105
aI110
aI33
aI75
aI50
aI18
aI70
aI65
aI77
aI89
aI24
aI43
aI69
aI32
aI60
aI101
aI80
aI29
aI126
aI28
aI113
aI53
aI10
aI124
aI114
aI26
aI46
aI85
aI119
aI19
aI51
aI45
aI6
aI11
aI27
aI2
aI42
aI17
aI47
aI117
aI112
aI55
aI82
aI81
aI8
aI100
aI66
aI25
aI15
aI9
aI48
aI35
aI120
aI97
aI127
aI103
aI20
aI109
aI92
aI12
aI102
aI84
aI54
aI99
aI94
aI16
aI39
aI30
aI7
aI115
aI96
aI40
aI125
aI79
aI59
aI63
aI108
aI14
aI78
aI121
aI67
aI91
aI118
aI5
aI31
aI62
aI111
aI57
aI93
aa(lp30
I0
aI24
aI12
aI8
aI6
aI121
aI4
aI95
aI3
aI53
aI125
aI103
aI2
aI31
aI110
aI86
aI64
aI50
aI91
aI27
aI127
aI115
aI114
aI116
aI1
aI34
aI78
aI19
aI55
aI92
aI43
aI13
aI32
aI122
aI25
aI94
aI108
aI85
aI76
aI52
aI126
aI83
aI120
aI30
aI57
aI112
aI58
aI70
aI65
aI123
aI17
aI111
aI39
aI9
aI72
aI28
aI90
aI44
aI46
aI79
aI84
aI66
aI71
aI80
aI16
aI48
aI61
aI113
aI77
aI106
aI47
aI62
aI54
aI100
aI107
aI101
aI38
aI68
aI26
aI59
aI63
aI119
aI104
aI41
aI60
aI37
aI15
aI99
aI93
aI117
aI56
aI18
aI29
aI88
aI35
aI7
aI97
aI96
aI124
aI87
aI73
aI75
aI118
aI11
aI82
aI109
aI69
aI74
aI36
aI105
aI14
aI51
aI45
aI67
aI22
aI21
aI23
aI89
aI102
aI81
aI42
aI5
aI33
aI49
aI98
aI10
aI40
aI20
aa(lp31
I0
aI25
aI77
aI118
aI103
aI83
aI59
aI105
aI114
aI39
aI104
aI45
aI92
aI80
aI117
aI49
aI57
aI110
aI82
aI107
aI52
aI121
aI87
aI48
aI46
aI1
aI40
aI29
aI123
aI27
aI89
aI99
aI93
aI33
aI55
aI71
aI41
aI67
aI116
aI9
aI26
aI36
aI125
aI126
aI106
aI11
aI24
aI94
aI23
aI15
aI65
aI91
aI20
aI88
aI79
aI34
aI124
aI16
aI76
aI6
aI109
aI101
aI112
aI86
aI111
aI50
aI81
aI37
aI90
aI78
aI98
aI35
aI85
aI95
aI96
aI113
aI58
aI2
aI69
aI54
aI13
aI66
aI18
aI5
aI127
aI72
aI63
aI22
aI53
aI30
aI68
aI51
aI12
aI32
aI47
aI73
aI74
aI100
aI70
aI31
aI97
aI61
aI108
aI4
aI10
aI7
aI44
aI19
aI102
aI60
aI17
aI64
aI62
aI75
aI8
aI122
aI38
aI14
aI3
aI120
aI119
aI21
aI115
aI28
aI56
aI42
aI43
aI84
aa(lp32
I0
aI26
aI13
aI119
aI71
aI45
aI122
aI51
aI98
aI17
aI87
aI112
aI61
aI2
aI88
aI27
aI49
aI9
aI73
aI120
aI106
aI103
aI56
aI127
aI95
aI100
aI1
aI15
aI44
aI81
aI76
aI82
aI89
aI79
aI69
aI108
aI101
aI121
aI60
aI78
aI53
aI62
aI114
aI93
aI28
aI5
aI126
aI118
aI110
aI16
aI50
aI7
aI65
aI40
aI70
aI96
aI22
aI84
aI105
aI94
aI38
aI12
aI41
aI92
aI109
aI52
aI102
aI90
aI99
aI34
aI54
aI4
aI115
aI18
aI125
aI77
aI30
aI75
aI39
aI33
aI91
aI29
aI31
aI113
aI57
aI124
aI111
aI10
aI14
aI32
aI67
aI80
aI63
aI43
aI59
aI24
aI55
aI104
aI8
aI68
aI25
aI36
aI66
aI21
aI97
aI58
aI20
aI123
aI35
aI64
aI48
aI86
aI11
aI83
aI42
aI72
aI117
aI116
aI47
aI3
aI19
aI37
aI6
aI107
aI85
aI74
aI46
aI23
aa(lp33
I0
aI27
aI76
aI9
aI38
aI7
aI69
aI5
aI19
aI3
aI66
aI58
aI99
aI77
aI67
aI124
aI72
aI85
aI64
aI8
aI33
aI109
aI29
aI59
aI112
aI71
aI103
aI1
aI96
aI22
aI62
aI60
aI36
aI20
aI107
aI117
aI32
aI111
aI4
aI115
aI81
aI73
aI119
aI61
aI79
aI126
aI92
aI110
aI56
aI100
aI98
aI51
aI114
aI121
aI65
aI94
aI48
aI104
aI11
aI23
aI31
aI43
aI30
aI90
aI18
aI54
aI10
aI14
aI116
aI6
aI123
aI25
aI16
aI41
aI118
aI89
aI2
aI13
aI120
aI44
aI105
aI40
aI101
aI93
aI122
aI17
aI95
aI127
aI102
aI75
aI63
aI113
aI46
aI83
aI55
aI86
aI28
aI108
aI50
aI12
aI49
aI82
aI88
aI26
aI57
aI80
aI125
aI34
aI97
aI21
aI47
aI37
aI24
aI91
aI52
aI39
aI68
aI35
aI74
aI42
aI78
aI53
aI84
aI70
aI15
aI106
aI45
aI87
aa(lp34
I0
aI28
aI14
aI117
aI7
aI82
aI123
aI4
aI66
aI125
aI41
aI73
aI124
aI37
aI2
aI79
aI33
aI68
aI127
aI94
aI85
aI91
aI101
aI98
aI62
aI45
aI83
aI43
aI1
aI70
aI102
aI48
aI81
aI16
aI34
aI58
aI126
aI13
aI47
aI67
aI107
aI10
aI108
aI27
aI115
aI25
aI49
aI38
aI31
aI46
aI87
aI60
aI104
aI75
aI84
aI103
aI65
aI95
aI35
aI109
aI51
aI93
aI24
aI72
aI105
aI56
aI8
aI39
aI17
aI121
aI29
aI74
aI63
aI11
aI71
aI53
aI86
aI90
aI96
aI15
aI116
aI32
aI5
aI26
aI54
aI20
aI76
aI50
aI120
aI92
aI77
aI21
aI89
aI61
aI19
aI57
aI78
aI112
aI23
aI113
aI106
aI22
aI30
aI55
aI52
aI64
aI100
aI40
aI42
aI59
aI114
aI122
aI97
aI99
aI110
aI44
aI80
aI3
aI119
aI118
aI88
aI69
aI111
aI6
aI12
aI9
aI36
aI18
aa(lp35
I0
aI29
aI79
aI11
aI102
aI120
aI68
aI50
aI51
aI111
aI60
aI3
aI34
aI106
aI25
aI40
aI88
aI24
aI118
aI46
aI30
aI81
aI64
aI38
aI17
aI14
aI53
aI37
aI77
aI1
aI20
aI94
aI44
aI75
aI12
aI35
aI59
aI27
aI23
aI126
aI15
aI125
aI105
aI123
aI32
aI98
aI19
aI62
aI73
aI90
aI7
aI8
aI91
aI26
aI83
aI89
aI103
aI99
aI65
aI36
aI10
aI122
aI47
aI78
aI22
aI58
aI100
aI115
aI6
aI93
aI80
aI87
aI92
aI48
aI76
aI33
aI74
aI28
aI63
aI2
aI70
aI21
aI127
aI54
aI117
aI121
aI124
aI71
aI16
aI55
aI49
aI52
aI72
aI69
aI31
aI119
aI101
aI116
aI45
aI57
aI66
aI96
aI4
aI56
aI108
aI42
aI13
aI113
aI104
aI110
aI109
aI9
aI114
aI107
aI112
aI67
aI97
aI84
aI18
aI95
aI5
aI85
aI61
aI43
aI86
aI41
aI39
aI82
aa(lp36
I0
aI30
aI15
aI10
aI70
aI6
aI5
aI104
aI35
aI89
aI3
aI94
aI67
aI56
aI52
aI2
aI80
aI127
aI109
aI61
aI64
aI79
aI47
aI105
aI96
aI107
aI28
aI55
aI26
aI75
aI1
aI111
aI40
aI37
aI126
aI8
aI119
aI33
aI95
aI57
aI32
aI103
aI102
aI88
aI86
aI108
aI117
aI22
aI48
aI69
aI116
aI84
aI14
aI106
aI90
aI27
aI13
aI39
aI100
aI124
aI65
aI19
aI118
aI68
aI20
aI60
aI83
aI12
aI63
aI49
aI4
aI112
aI122
aI125
aI81
aI29
aI110
aI85
aI93
aI21
aI16
aI74
aI114
aI66
aI51
aI77
aI44
aI91
aI43
aI9
aI54
aI87
aI123
aI78
aI11
aI38
aI24
aI120
aI99
aI98
aI58
aI121
aI42
aI41
aI7
aI23
aI53
aI25
aI45
aI18
aI76
aI31
aI71
aI115
aI82
aI113
aI50
aI46
aI62
aI36
aI97
aI101
aI72
aI92
aI59
aI73
aI34
aI17
aa(lp37
I0
aI31
aI78
aI116
aI39
aI44
aI58
aI94
aI82
aI75
aI22
aI20
aI29
aI119
aI47
aI101
aI41
aI35
aI100
aI77
aI11
aI69
aI10
aI45
aI79
aI72
aI122
aI57
aI86
aI12
aI115
aI1
aI85
aI126
aI80
aI17
aI50
aI55
aI103
aI4
aI68
aI16
aI99
aI56
aI5
aI23
aI87
aI14
aI102
aI49
aI36
aI96
aI61
aI59
aI93
aI37
aI43
aI27
aI6
aI53
aI120
aI52
aI65
aI66
aI107
aI62
aI63
aI88
aI40
aI21
aI73
aI109
aI25
aI70
aI90
aI9
aI114
aI19
aI2
aI24
aI34
aI127
aI8
aI110
aI112
aI32
aI28
aI46
aI67
aI98
aI74
aI118
aI106
aI54
aI7
aI104
aI51
aI124
aI89
aI42
aI18
aI15
aI48
aI38
aI95
aI125
aI92
aI64
aI111
aI71
aI83
aI108
aI84
aI123
aI76
aI30
aI3
aI121
aI91
aI13
aI60
aI117
aI26
aI113
aI97
aI105
aI33
aI81
aa(lp38
I0
aI32
aI16
aI97
aI8
aI94
aI113
aI87
aI4
aI76
aI47
aI118
aI121
aI85
aI106
aI75
aI2
aI57
aI38
aI36
aI86
aI70
aI59
aI51
aI125
aI120
aI107
aI69
aI53
aI83
aI100
aI109
aI1
aI90
aI93
aI42
aI19
aI79
aI18
aI49
aI43
aI71
aI35
aI40
aI92
aI66
aI88
aI10
aI127
aI39
aI60
aI23
aI116
aI28
aI99
aI81
aI91
aI17
aI104
aI22
aI50
aI123
aI119
aI67
aI65
aI64
aI45
aI63
aI111
aI27
aI21
aI41
aI72
aI114
aI102
aI15
aI9
aI115
aI89
aI37
aI84
aI55
aI98
aI29
aI80
aI13
aI20
aI7
aI46
aI78
aI33
aI56
aI44
aI34
aI5
aI117
aI126
aI3
aI82
aI54
aI30
aI103
aI74
aI101
aI58
aI110
aI14
aI26
aI112
aI31
aI105
aI68
aI108
aI6
aI73
aI77
aI52
aI95
aI11
aI62
aI25
aI12
aI124
aI61
aI122
aI24
aI96
aI48
aa(lp39
I0
aI33
aI81
aI31
aI105
aI116
aI78
aI97
aI117
aI94
aI58
aI60
aI39
aI26
aI113
aI44
aI123
aI101
aI47
aI84
aI29
aI76
aI30
aI119
aI82
aI91
aI13
aI75
aI121
aI20
aI22
aI3
aI124
aI1
aI115
aI51
aI86
aI89
aI42
aI12
aI79
aI48
aI38
aI72
aI15
aI57
aI122
aI18
aI41
aI83
aI108
aI35
aI71
aI77
aI100
aI111
aI125
aI45
aI10
aI95
aI11
aI92
aI64
aI69
aI62
aI66
aI65
aI107
aI120
aI63
aI88
aI52
aI43
aI73
aI109
aI27
aI21
aI53
aI6
aI40
aI102
aI2
aI24
aI49
aI19
aI96
aI36
aI114
aI70
aI37
aI93
aI25
aI61
aI90
aI9
aI59
aI85
aI7
aI104
aI126
aI54
aI17
aI80
aI106
aI98
aI4
aI103
aI67
aI50
aI74
aI118
aI55
aI127
aI14
aI87
aI34
aI5
aI8
aI110
aI23
aI68
aI28
aI46
aI16
aI32
aI56
aI99
aI112
aa(lp40
I0
aI34
aI17
aI30
aI73
aI10
aI15
aI59
aI101
aI104
aI5
aI97
aI70
aI72
aI92
aI6
aI115
aI2
aI52
aI71
aI67
aI82
aI113
aI56
aI35
aI62
aI36
aI89
aI46
aI94
aI3
aI50
aI120
aI111
aI1
aI24
aI26
aI99
aI98
aI75
aI96
aI42
aI41
aI107
aI121
aI55
aI28
aI58
aI80
aI76
aI31
aI127
aI18
aI61
aI109
aI45
aI23
aI105
aI47
aI7
aI64
aI53
aI25
aI79
aI60
aI68
aI118
aI20
aI65
aI83
aI12
aI19
aI13
aI4
aI112
aI39
aI49
aI124
aI100
aI63
aI48
aI93
aI21
aI69
aI85
aI84
aI116
aI110
aI125
aI27
aI90
aI122
aI14
aI81
aI29
aI106
aI40
aI11
aI38
aI37
aI78
aI8
aI126
aI123
aI9
aI57
aI95
aI43
aI119
aI54
aI87
aI33
aI74
aI22
aI117
aI16
aI86
aI114
aI66
aI108
aI32
aI44
aI91
aI103
aI77
aI88
aI102
aI51
aa(lp41
I0
aI35
aI80
aI96
aI40
aI32
aI48
aI13
aI20
aI122
aI16
aI43
aI24
aI7
aI71
aI97
aI10
aI94
aI61
aI55
aI8
aI88
aI84
aI124
aI12
aI29
aI66
aI87
aI98
aI25
aI113
aI92
aI5
aI52
aI47
aI1
aI95
aI117
aI90
aI118
aI4
aI93
aI44
aI11
aI42
aI76
aI62
aI34
aI6
aI56
aI79
aI75
aI33
aI108
aI106
aI19
aI49
aI85
aI77
aI78
aI121
aI18
aI46
aI73
aI67
aI70
aI26
aI64
aI86
aI119
aI65
aI14
aI110
aI63
aI123
aI51
aI45
aI58
aI59
aI50
aI2
aI104
aI111
aI105
aI22
aI57
aI68
aI27
aI21
aI112
aI38
aI91
aI31
aI41
aI17
aI36
aI3
aI15
aI28
aI109
aI102
aI126
aI100
aI116
aI81
aI83
aI54
aI114
aI53
aI99
aI72
aI82
aI89
aI30
aI107
aI127
aI103
aI37
aI39
aI69
aI125
aI60
aI9
aI74
aI23
aI120
aI101
aI115
aa(lp42
I0
aI36
aI18
aI28
aI9
aI117
aI14
aI12
aI69
aI4
aI123
aI88
aI7
aI111
aI6
aI82
aI99
aI79
aI2
aI97
aI124
aI110
aI44
aI37
aI66
aI119
aI118
aI125
aI3
aI73
aI41
aI80
aI112
aI48
aI102
aI78
aI1
aI23
aI113
aI70
aI62
aI30
aI55
aI45
aI22
aI43
aI83
aI106
aI33
aI114
aI122
aI68
aI59
aI94
aI127
aI42
aI64
aI98
aI101
aI52
aI85
aI100
aI40
aI91
aI56
aI72
aI24
aI105
aI51
aI8
aI39
aI93
aI65
aI29
aI74
aI95
aI121
aI109
aI35
aI17
aI31
aI96
aI15
aI46
aI90
aI60
aI87
aI86
aI11
aI103
aI84
aI63
aI104
aI71
aI53
aI75
aI81
aI19
aI57
aI16
aI61
aI58
aI34
aI89
aI92
aI67
aI47
aI120
aI126
aI77
aI21
aI13
aI32
aI38
aI49
aI116
aI115
aI5
aI26
aI25
aI107
aI76
aI50
aI10
aI20
aI27
aI108
aI54
aa(lp43
I0
aI37
aI83
aI98
aI104
aI95
aI49
aI58
aI52
aI22
aI110
aI18
aI89
aI32
aI29
aI53
aI26
aI19
aI11
aI17
aI55
aI100
aI9
aI97
aI109
aI84
aI16
aI115
aI79
aI14
aI91
aI62
aI13
aI107
aI72
aI87
aI68
aI1
aI73
aI123
aI90
aI105
aI50
aI77
aI69
aI80
aI113
aI114
aI119
aI6
aI42
aI112
aI8
aI15
aI120
aI20
aI102
aI94
aI7
aI125
aI108
aI67
aI31
aI93
aI71
aI74
aI116
aI61
aI36
aI44
aI106
aI64
aI34
aI38
aI65
aI75
aI101
aI43
aI124
aI28
aI45
aI85
aI117
aI2
aI25
aI81
aI103
aI35
aI99
aI12
aI40
aI30
aI121
aI63
aI57
aI5
aI122
aI23
aI3
aI88
aI21
aI76
aI56
aI86
aI4
aI41
aI70
aI33
aI60
aI24
aI10
aI126
aI51
aI46
aI47
aI27
aI66
aI82
aI127
aI48
aI54
aI92
aI96
aI39
aI78
aI59
aI111
aI118
aa(lp44
I0
aI38
aI19
aI99
aI72
aI33
aI112
aI96
aI36
aI32
aI81
aI79
aI56
aI114
aI48
aI31
aI18
aI116
aI16
aI2
aI105
aI122
aI102
aI46
aI28
aI49
aI57
aI97
aI24
aI68
aI78
aI15
aI9
aI5
aI58
aI124
aI8
aI59
aI1
aI60
aI117
aI115
aI61
aI110
aI51
aI94
aI23
aI90
aI14
aI25
aI89
aI44
aI93
aI127
aI113
aI86
aI12
aI26
aI34
aI37
aI39
aI42
aI70
aI87
aI69
aI76
aI67
aI66
aI29
aI64
aI62
aI103
aI4
aI107
aI92
aI119
aI65
aI98
aI30
aI11
aI123
aI10
aI120
aI118
aI95
aI101
aI55
aI63
aI88
aI50
aI47
aI125
aI74
aI52
aI45
aI84
aI7
aI27
aI77
aI3
aI109
aI85
aI22
aI71
aI111
aI20
aI126
aI73
aI121
aI100
aI43
aI104
aI6
aI54
aI13
aI41
aI17
aI40
aI83
aI75
aI82
aI108
aI21
aI80
aI35
aI91
aI106
aI53
aa(lp45
I0
aI39
aI82
aI29
aI41
aI11
aI79
aI86
aI85
aI50
aI68
aI5
aI102
aI61
aI43
aI120
aI107
aI40
aI25
aI114
aI34
aI112
aI67
aI106
aI51
aI18
aI95
aI111
aI84
aI3
aI60
aI97
aI116
aI94
aI20
aI101
aI77
aI45
aI57
aI1
aI17
aI4
aI56
aI14
aI96
aI37
aI53
aI66
aI88
aI109
aI9
aI24
aI110
aI46
aI118
aI104
aI42
aI38
aI64
aI108
aI30
aI13
aI113
aI81
aI58
aI78
aI47
aI22
aI10
aI100
aI115
aI122
aI103
aI80
aI87
aI99
aI93
aI36
aI65
aI6
aI73
aI63
aI2
aI90
aI28
aI8
aI7
aI74
aI48
aI89
aI83
aI92
aI91
aI76
aI33
aI26
aI44
aI31
aI119
aI75
aI69
aI35
aI12
aI72
aI55
aI126
aI23
aI16
aI59
aI49
aI52
aI27
aI21
aI62
aI19
aI70
aI32
aI127
aI54
aI98
aI15
aI124
aI71
aI125
aI121
aI123
aI105
aI117
aa(lp46
I0
aI40
aI20
aI24
aI10
aI8
aI12
aI98
aI5
aI95
aI4
aI42
aI6
aI33
aI49
aI121
aI67
aI86
aI110
aI45
aI2
aI22
aI21
aI31
aI3
aI102
aI81
aI53
aI89
aI103
aI125
aI23
aI96
aI13
aI43
aI97
aI55
aI124
aI87
aI92
aI1
aI118
aI11
aI34
aI75
aI19
aI78
aI73
aI64
aI14
aI51
aI50
aI105
aI27
aI91
aI36
aI109
aI116
aI114
aI82
aI127
aI69
aI74
aI115
aI48
aI80
aI71
aI16
aI84
aI61
aI113
aI66
aI90
aI47
aI62
aI44
aI106
aI79
aI46
aI77
aI65
aI26
aI59
aI123
aI68
aI111
aI17
aI38
aI100
aI28
aI72
aI54
aI39
aI107
aI101
aI9
aI32
aI35
aI7
aI122
aI88
aI94
aI25
aI29
aI117
aI52
aI76
aI93
aI108
aI56
aI18
aI85
aI119
aI70
aI58
aI63
aI57
aI104
aI41
aI112
aI126
aI15
aI99
aI83
aI37
aI30
aI120
aI60
aa(lp47
I0
aI41
aI85
aI102
aI107
aI34
aI51
aI84
aI116
aI77
aI17
aI96
aI88
aI110
aI42
aI30
aI58
aI10
aI103
aI93
aI73
aI28
aI48
aI91
aI44
aI69
aI55
aI59
aI21
aI32
aI15
aI121
aI29
aI86
aI5
aI120
aI114
aI106
aI111
aI97
aI101
aI1
aI14
aI66
aI24
aI104
aI108
aI81
aI22
aI122
aI99
aI6
aI90
aI74
aI92
aI26
aI75
aI72
aI16
aI27
aI70
aI98
aI125
aI117
aI79
aI82
aI43
aI68
aI67
aI25
aI60
aI95
aI57
aI20
aI53
aI56
aI118
aI9
aI113
aI64
aI115
aI47
aI65
aI87
aI7
aI2
aI33
aI83
aI12
aI119
aI52
aI23
aI54
aI19
aI105
aI71
aI11
aI39
aI61
aI50
aI112
aI40
aI3
aI18
aI45
aI94
aI37
aI4
aI46
aI109
aI13
aI38
aI100
aI78
aI36
aI80
aI8
aI63
aI76
aI89
aI35
aI31
aI49
aI126
aI127
aI62
aI123
aI124
aa(lp48
I0
aI42
aI21
aI103
aI75
aI92
aI114
aI14
aI100
aI123
aI46
aI61
aI57
aI60
aI7
aI52
aI50
aI109
aI124
aI78
aI23
aI2
aI95
aI20
aI93
aI32
aI30
aI41
aI66
aI106
aI26
aI72
aI25
aI56
aI119
aI83
aI62
aI80
aI39
aI38
aI74
aI27
aI1
aI97
aI110
aI102
aI10
aI121
aI111
aI101
aI16
aI90
aI15
aI58
aI85
aI88
aI33
aI12
aI53
aI67
aI13
aI11
aI36
aI127
aI77
aI84
aI28
aI59
aI122
aI117
aI104
aI120
aI31
aI89
aI40
aI4
aI82
aI64
aI19
aI87
aI37
aI112
aI76
aI35
aI65
aI54
aI113
aI79
aI55
aI73
aI51
aI116
aI5
aI24
aI125
aI22
aI118
aI43
aI115
aI105
aI8
aI49
aI45
aI3
aI70
aI99
aI29
aI108
aI107
aI17
aI44
aI48
aI81
aI86
aI6
aI98
aI91
aI69
aI96
aI34
aI71
aI47
aI68
aI9
aI18
aI94
aI126
aI63
aa(lp49
I0
aI43
aI84
aI25
aI42
aI118
aI77
aI56
aI21
aI105
aI59
aI119
aI103
aI115
aI28
aI83
aI75
aI49
aI117
aI62
aI92
aI8
aI122
aI80
aI114
aI3
aI120
aI39
aI14
aI45
aI104
aI38
aI100
aI99
aI89
aI74
aI123
aI70
aI31
aI27
aI46
aI108
aI4
aI1
aI61
aI29
aI40
aI97
aI57
aI17
aI64
aI110
aI60
aI107
aI82
aI102
aI7
aI48
aI87
aI10
aI52
aI44
aI19
aI121
aI50
aI86
aI112
aI111
aI109
aI81
aI37
aI101
aI124
aI98
aI35
aI16
aI78
aI6
aI76
aI90
aI23
aI69
aI54
aI15
aI2
aI91
aI65
aI58
aI95
aI34
aI79
aI85
aI20
aI96
aI113
aI88
aI93
aI47
aI73
aI33
aI32
aI71
aI55
aI12
aI30
aI9
aI116
aI53
aI41
aI68
aI51
aI67
aI66
aI94
aI24
aI13
aI106
aI18
aI5
aI11
aI26
aI63
aI22
aI36
aI72
aI126
aI125
aI127
aa(lp50
I0
aI44
aI22
aI101
aI11
aI35
aI115
aI57
aI68
aI23
aI80
aI4
aI120
aI27
aI93
aI96
aI34
aI32
aI74
aI104
aI40
aI62
aI2
aI9
aI60
aI105
aI76
aI13
aI111
aI125
aI48
aI42
aI17
aI103
aI16
aI5
aI37
aI36
aI52
aI43
aI20
aI47
aI31
aI39
aI1
aI122
aI69
aI41
aI30
aI91
aI117
aI97
aI38
aI89
aI71
aI95
aI118
aI7
aI127
aI112
aI24
aI90
aI21
aI107
aI73
aI88
aI114
aI70
aI8
aI46
aI67
aI54
aI83
aI64
aI18
aI124
aI26
aI81
aI84
aI121
aI10
aI77
aI86
aI72
aI78
aI94
aI82
aI119
aI65
aI53
aI61
aI49
aI99
aI14
aI85
aI55
aI15
aI51
aI108
aI92
aI123
aI3
aI113
aI33
aI19
aI25
aI109
aI63
aI98
aI106
aI110
aI28
aI59
aI102
aI66
aI6
aI126
aI50
aI56
aI87
aI12
aI79
aI45
aI100
aI75
aI29
aI116
aI58
aa(lp51
I0
aI45
aI87
aI27
aI106
aI9
aI76
aI15
aI53
aI5
aI69
aI78
aI38
aI84
aI70
aI7
aI91
aI124
aI67
aI24
aI99
aI52
aI39
aI77
aI19
aI74
aI42
aI3
aI35
aI58
aI66
aI68
aI108
aI60
aI62
aI28
aI96
aI50
aI12
aI22
aI112
aI88
aI26
aI71
aI82
aI1
aI103
aI49
aI72
aI47
aI37
aI85
aI21
aI8
aI64
aI97
aI80
aI59
aI29
aI57
aI33
aI125
aI34
aI109
aI54
aI90
aI30
aI18
aI31
aI10
aI14
aI43
aI48
aI123
aI25
aI104
aI6
aI23
aI11
aI116
aI56
aI120
aI44
aI100
aI13
aI51
aI98
aI2
aI41
aI94
aI65
aI16
aI114
aI118
aI89
aI121
aI36
aI55
aI86
aI20
aI83
aI117
aI107
aI46
aI75
aI115
aI4
aI102
aI32
aI63
aI113
aI111
aI40
aI110
aI92
aI105
aI79
aI101
aI93
aI126
aI81
aI95
aI127
aI73
aI17
aI61
aI119
aI122
aa(lp52
I0
aI46
aI23
aI26
aI74
aI119
aI13
aI85
aI37
aI51
aI122
aI19
aI71
aI6
aI107
aI45
aI83
aI27
aI88
aI11
aI61
aI42
aI72
aI2
aI98
aI47
aI3
aI17
aI116
aI112
aI87
aI117
aI104
aI82
aI76
aI55
aI44
aI8
aI68
aI81
aI95
aI66
aI21
aI100
aI36
aI15
aI1
aI25
aI49
aI48
aI86
aI9
aI64
aI120
aI73
aI35
aI58
aI127
aI56
aI97
aI106
aI20
aI123
aI103
aI52
aI92
aI41
aI109
aI38
aI102
aI90
aI12
aI22
aI54
aI4
aI84
aI34
aI94
aI105
aI99
aI110
aI39
aI33
aI16
aI75
aI7
aI50
aI30
aI18
aI96
aI70
aI115
aI65
aI125
aI77
aI40
aI89
aI59
aI24
aI79
aI43
aI108
aI69
aI63
aI32
aI78
aI60
aI14
aI101
aI67
aI80
aI121
aI29
aI118
aI126
aI91
aI28
aI31
aI113
aI5
aI53
aI111
aI10
aI62
aI124
aI93
aI114
aI57
aa(lp53
I0
aI47
aI86
aI100
aI43
aI93
aI50
aI99
aI84
aI33
aI111
aI89
aI25
aI73
aI112
aI74
aI42
aI71
aI81
aI123
aI118
aI32
aI109
aI70
aI77
aI12
aI101
aI31
aI56
aI55
aI37
aI27
aI21
aI9
aI98
aI46
aI105
aI30
aI124
aI108
aI59
aI53
aI16
aI4
aI119
aI116
aI35
aI1
aI103
aI68
aI6
aI61
aI115
aI41
aI78
aI29
aI28
aI67
aI90
aI40
aI83
aI51
aI76
aI97
aI75
aI94
aI69
aI57
aI49
aI66
aI23
aI17
aI117
aI13
aI15
aI64
aI62
aI24
aI54
aI110
aI92
aI18
aI91
aI60
aI8
aI106
aI2
aI107
aI122
aI11
aI58
aI82
aI80
aI5
aI65
aI102
aI114
aI63
aI34
aI7
aI3
aI26
aI95
aI48
aI120
aI36
aI85
aI87
aI39
aI22
aI79
aI10
aI14
aI126
aI96
aI52
aI45
aI72
aI20
aI44
aI104
aI127
aI88
aI19
aI38
aI125
aI113
aI121
aa(lp54
I0
aI48
aI24
aI16
aI12
aI113
aI8
aI61
aI6
aI106
aI121
aI77
aI4
aI62
aI95
aI47
aI3
aI100
aI53
aI54
aI125
aI101
aI103
aI107
aI2
aI68
aI31
aI38
aI110
aI59
aI86
aI26
aI64
aI119
aI50
aI63
aI91
aI41
aI27
aI104
aI127
aI37
aI115
aI60
aI114
aI99
aI116
aI15
aI1
aI117
aI34
aI93
aI78
aI18
aI19
aI56
aI55
aI88
aI92
aI29
aI43
aI7
aI13
aI35
aI32
aI96
aI122
aI97
aI25
aI87
aI94
aI124
aI108
aI75
aI85
aI73
aI76
aI11
aI52
aI118
aI126
aI109
aI83
aI82
aI120
aI74
aI30
aI69
aI57
aI105
aI112
aI36
aI58
aI51
aI70
aI14
aI65
aI67
aI123
aI45
aI17
aI21
aI111
aI22
aI39
aI89
aI9
aI23
aI72
aI81
aI28
aI102
aI90
aI5
aI44
aI42
aI46
aI49
aI79
aI33
aI84
aI10
aI66
aI98
aI71
aI20
aI80
aI40
aa(lp55
I0
aI49
aI89
aI110
aI109
aI91
aI55
aI11
aI119
aI120
aI108
aI7
aI90
aI113
aI68
aI72
aI122
aI56
aI60
aI70
aI54
aI111
aI66
aI47
aI45
aI103
aI121
aI40
aI34
aI124
aI36
aI116
aI61
aI44
aI28
aI38
aI30
aI63
aI35
aI85
aI27
aI82
aI118
aI92
aI33
aI24
aI86
aI23
aI87
aI1
aI114
aI105
aI125
aI67
aI20
aI6
aI17
aI100
aI62
aI84
aI18
aI32
aI58
aI37
aI95
aI98
aI22
aI53
aI14
aI115
aI19
aI97
aI15
aI112
aI94
aI93
aI80
aI77
aI107
aI123
aI76
aI88
aI41
aI126
aI59
aI39
aI46
aI48
aI81
aI2
aI12
aI5
aI43
aI75
aI74
aI64
aI106
aI71
aI65
aI101
aI57
aI99
aI117
aI25
aI127
aI51
aI96
aI78
aI10
aI4
aI3
aI21
aI73
aI13
aI50
aI69
aI31
aI102
aI42
aI8
aI9
aI26
aI16
aI79
aI29
aI52
aI83
aI104
aa(lp56
I0
aI50
aI25
aI111
aI77
aI37
aI118
aI81
aI103
aI78
aI83
aI90
aI59
aI35
aI105
aI98
aI114
aI95
aI39
aI85
aI104
aI113
aI45
aI96
aI92
aI2
aI80
aI58
aI117
aI54
aI49
aI69
aI57
aI66
aI110
aI13
aI82
aI5
aI107
aI18
aI52
aI72
aI121
aI127
aI87
aI22
aI48
aI63
aI46
aI30
aI1
aI53
aI40
aI51
aI29
aI68
aI123
aI32
aI27
aI12
aI89
aI73
aI99
aI47
aI93
aI100
aI33
aI74
aI55
aI31
aI71
aI70
aI41
aI61
aI67
aI97
aI116
aI4
aI9
aI108
aI26
aI7
aI36
aI10
aI125
aI19
aI126
aI44
aI106
aI60
aI11
aI102
aI24
aI64
aI94
aI17
aI23
aI75
aI15
aI62
aI65
aI122
aI91
aI8
aI20
aI14
aI88
aI38
aI79
aI120
aI34
aI3
aI124
aI21
aI16
aI119
aI76
aI28
aI6
aI115
aI109
aI42
aI101
aI56
aI112
aI84
aI86
aI43
aa(lp57
I0
aI51
aI88
aI17
aI44
aI15
aI73
aI103
aI22
aI92
aI70
aI16
aI101
aI108
aI114
aI5
aI11
aI3
aI46
aI37
aI35
aI123
aI8
aI36
aI115
aI33
aI54
aI52
aI57
aI113
aI67
aI43
aI68
aI25
aI64
aI20
aI23
aI19
aI83
aI47
aI80
aI63
aI124
aI31
aI4
aI109
aI18
aI39
aI120
aI106
aI81
aI1
aI27
aI98
aI26
aI122
aI93
aI28
aI121
aI69
aI96
aI110
aI84
aI41
aI34
aI102
aI77
aI30
aI32
aI59
aI10
aI91
aI74
aI6
aI72
aI117
aI104
aI66
aI86
aI97
aI40
aI50
aI94
aI38
aI62
aI126
aI78
aI89
aI2
aI87
aI119
aI71
aI9
aI56
aI82
aI95
aI60
aI79
aI53
aI118
aI105
aI12
aI65
aI7
aI76
aI100
aI49
aI127
aI13
aI45
aI61
aI112
aI111
aI29
aI14
aI24
aI125
aI75
aI99
aI90
aI48
aI58
aI55
aI21
aI42
aI116
aI85
aI107
aa(lp58
I0
aI52
aI26
aI109
aI13
aI90
aI119
aI102
aI71
aI34
aI45
aI99
aI122
aI4
aI51
aI54
aI98
aI18
aI17
aI115
aI87
aI77
aI112
aI125
aI61
aI75
aI2
aI30
aI88
aI33
aI27
aI39
aI49
aI29
aI9
aI91
aI73
aI113
aI120
aI31
aI106
aI124
aI103
aI57
aI56
aI10
aI127
aI111
aI95
aI32
aI100
aI14
aI1
aI80
aI15
aI67
aI44
aI43
aI81
aI63
aI76
aI24
aI82
aI59
aI89
aI104
aI79
aI55
aI69
aI68
aI108
aI8
aI101
aI36
aI121
aI25
aI60
aI21
aI78
aI66
aI53
aI58
aI62
aI97
aI114
aI123
aI93
aI20
aI28
aI64
aI5
aI35
aI126
aI86
aI118
aI48
aI110
aI83
aI16
aI11
aI50
aI72
aI7
aI42
aI65
aI116
aI40
aI117
aI70
aI3
aI96
aI47
aI22
aI37
aI84
aI19
aI105
aI107
aI94
aI6
aI38
aI74
aI12
aI85
aI41
aI23
aI92
aI46
aa(lp59
I0
aI53
aI91
aI19
aI108
aI112
aI72
aI80
aI54
aI48
aI56
aI41
aI36
aI75
aI40
aI81
aI27
aI78
aI24
aI3
aI28
aI71
aI85
aI57
aI18
aI104
aI100
aI16
aI20
aI102
aI105
aI73
aI76
aI70
aI39
aI66
aI12
aI103
aI64
aI34
aI14
aI11
aI98
aI89
aI107
aI113
aI93
aI119
aI9
aI84
aI52
aI58
aI50
aI1
aI8
aI125
aI10
aI23
aI51
aI118
aI117
aI63
aI101
aI61
aI38
aI106
aI35
aI99
aI82
aI96
aI33
aI21
aI6
aI31
aI114
aI13
aI32
aI83
aI17
aI79
aI7
aI15
aI68
aI77
aI49
aI22
aI109
aI97
aI116
aI43
aI121
aI2
aI111
aI46
aI122
aI126
aI69
aI87
aI42
aI67
aI26
aI62
aI29
aI37
aI25
aI30
aI65
aI44
aI4
aI86
aI127
aI92
aI5
aI45
aI74
aI124
aI88
aI60
aI59
aI47
aI123
aI90
aI94
aI120
aI115
aI55
aI95
aI110
aa(lp60
I0
aI54
aI27
aI18
aI76
aI14
aI9
aI10
aI38
aI6
aI7
aI116
aI69
aI25
aI5
aI123
aI19
aI41
aI3
aI16
aI66
aI89
aI58
aI118
aI99
aI13
aI77
aI2
aI67
aI44
aI124
aI120
aI72
aI40
aI85
aI105
aI64
aI93
aI8
aI101
aI33
aI17
aI109
aI122
aI29
aI127
aI59
aI95
aI112
aI75
aI71
aI102
aI103
aI113
aI1
aI63
aI96
aI83
aI22
aI46
aI62
aI86
aI60
aI55
aI36
aI108
aI20
aI28
aI107
aI12
aI117
aI50
aI32
aI82
aI111
aI49
aI4
aI26
aI115
aI88
aI81
aI80
aI73
aI57
aI119
aI34
aI61
aI125
aI79
aI21
aI126
aI97
aI92
aI37
aI110
aI47
aI56
aI91
aI100
aI24
aI98
aI39
aI51
aI52
aI114
aI35
aI121
aI68
aI65
aI42
aI94
aI74
aI48
aI53
aI104
aI78
aI11
aI70
aI23
aI84
aI31
aI106
aI43
aI15
aI30
aI87
aI90
aI45
aa(lp61
I0
aI55
aI90
aI108
aI45
aI36
aI54
aI60
aI87
aI20
aI18
aI62
aI27
aI86
aI30
aI28
aI106
aI117
aI10
aI96
aI9
aI83
aI31
aI50
aI76
aI46
aI43
aI12
aI15
aI107
aI14
aI22
aI53
aI115
aI123
aI112
aI5
aI75
aI48
aI88
aI69
aI102
aI104
aI26
aI78
aI4
aI25
aI71
aI38
aI63
aI23
aI82
aI84
aI32
aI6
aI1
aI70
aI111
aI116
aI103
aI7
aI113
aI11
aI49
aI91
aI110
aI120
aI72
aI124
aI40
aI56
aI47
aI67
aI105
aI100
aI37
aI24
aI92
aI44
aI85
aI99
aI101
aI51
aI21
aI52
aI79
aI13
aI8
aI39
aI126
aI2
aI64
aI77
aI93
aI98
aI97
aI19
aI95
aI94
aI80
aI74
aI81
aI41
aI59
aI42
aI73
aI16
aI29
aI3
aI127
aI65
aI57
aI35
aI61
aI118
aI33
aI58
aI17
aI114
aI125
aI66
aI122
aI121
aI34
aI68
aI119
aI89
aI109
aa(lp62
I0
aI56
aI28
aI105
aI14
aI39
aI117
aI8
aI7
aI121
aI82
aI17
aI123
aI74
aI4
aI29
aI66
aI11
aI125
aI63
aI41
aI53
aI73
aI71
aI124
aI90
aI37
aI86
aI2
aI15
aI79
aI96
aI33
aI32
aI68
aI116
aI127
aI26
aI94
aI5
aI85
aI20
aI91
aI54
aI101
aI50
aI98
aI76
aI62
aI92
aI45
aI120
aI83
aI21
aI43
aI77
aI1
aI61
aI70
aI89
aI102
aI57
aI48
aI19
aI81
aI112
aI16
aI78
aI34
aI113
aI58
aI23
aI126
aI22
aI13
aI106
aI47
aI55
aI67
aI30
aI107
aI64
aI10
aI52
aI108
aI40
aI27
aI100
aI115
aI59
aI25
aI42
aI49
aI122
aI38
aI114
aI31
aI99
aI46
aI97
aI87
aI44
aI60
aI110
aI104
aI3
aI75
aI80
aI84
aI118
aI103
aI119
aI65
aI69
aI95
aI88
aI35
aI6
aI109
aI111
aI51
aI9
aI93
aI12
aI24
aI18
aI72
aI36
aa(lp63
I0
aI57
aI93
aI23
aI111
aI13
aI74
aI62
aI118
aI107
aI71
aI91
aI37
aI5
aI31
aI122
aI59
aI87
aI116
aI79
aI98
aI63
aI108
aI3
aI83
aI121
aI67
aI88
aI78
aI72
aI61
aI14
aI92
aI123
aI106
aI109
aI58
aI12
aI102
aI56
aI49
aI99
aI94
aI86
aI54
aI73
aI64
aI84
aI104
aI40
aI125
aI76
aI96
aI68
aI44
aI115
aI39
aI1
aI36
aI16
aI95
aI30
aI7
aI21
aI46
aI114
aI124
aI26
aI53
aI85
aI119
aI10
aI29
aI45
aI6
aI126
aI51
aI113
aI28
aI19
aI89
aI117
aI112
aI24
aI47
aI69
aI43
aI17
aI27
aI80
aI101
aI11
aI32
aI2
aI42
aI60
aI52
aI103
aI20
aI41
aI127
aI90
aI38
aI97
aI48
aI105
aI34
aI9
aI22
aI35
aI120
aI4
aI82
aI77
aI65
aI55
aI18
aI81
aI8
aI70
aI110
aI25
aI15
aI33
aI66
aI50
aI75
aI100
aa(lp64
I0
aI58
aI29
aI22
aI79
aI115
aI11
aI100
aI102
aI93
aI120
aI6
aI68
aI87
aI50
aI80
aI51
aI48
aI111
aI92
aI60
aI33
aI3
aI76
aI34
aI28
aI106
aI74
aI25
aI2
aI40
aI63
aI88
aI21
aI24
aI70
aI118
aI54
aI46
aI127
aI30
aI121
aI81
aI117
aI64
aI71
aI38
aI124
aI17
aI55
aI14
aI16
aI53
aI52
aI37
aI49
aI77
aI69
aI1
aI72
aI20
aI119
aI94
aI31
aI44
aI116
aI75
aI101
aI12
aI57
aI35
aI45
aI59
aI96
aI27
aI66
aI23
aI56
aI126
aI4
aI15
aI42
aI125
aI108
aI105
aI113
aI123
aI13
aI32
aI110
aI98
aI104
aI19
aI9
aI62
aI109
aI73
aI107
aI90
aI114
aI7
aI67
aI8
aI112
aI91
aI84
aI26
aI97
aI83
aI95
aI89
aI18
aI103
aI85
aI99
aI5
aI65
aI43
aI36
aI61
aI10
aI41
aI122
aI86
aI47
aI82
aI78
aI39
aa(lp65
I0
aI59
aI92
aI104
aI46
aI89
aI52
aI82
aI23
aI79
aI109
aI76
aI26
aI24
aI41
aI55
aI74
aI108
aI102
aI44
aI119
aI43
aI38
aI8
aI13
aI63
aI12
aI68
aI85
aI69
aI90
aI81
aI37
aI78
aI54
aI95
aI51
aI32
aI22
aI66
aI122
aI14
aI84
aI21
aI19
aI60
aI4
aI100
aI71
aI67
aI94
aI36
aI6
aI101
aI34
aI15
aI107
aI121
aI99
aI1
aI45
aI80
aI105
aI25
aI83
aI118
aI39
aI49
aI27
aI29
aI110
aI48
aI88
aI91
aI16
aI86
aI11
aI126
aI33
aI9
aI61
aI31
aI7
aI64
aI42
aI28
aI75
aI120
aI72
aI5
aI30
aI73
aI2
aI113
aI50
aI35
aI98
aI111
aI96
aI58
aI47
aI53
aI18
aI127
aI3
aI62
aI115
aI56
aI17
aI10
aI70
aI97
aI116
aI93
aI125
aI106
aI112
aI124
aI65
aI20
aI87
aI57
aI40
aI123
aI117
aI114
aI77
aI103
aa(lp66
I0
aI60
aI30
aI20
aI15
aI12
aI10
aI83
aI70
aI49
aI6
aI63
aI5
aI112
aI104
aI4
aI35
aI125
aI89
aI122
aI3
aI29
aI94
aI81
aI67
aI85
aI56
aI110
aI52
aI21
aI2
aI93
aI80
aI74
aI127
aI16
aI109
aI66
aI61
aI114
aI64
aI77
aI79
aI51
aI47
aI91
aI105
aI44
aI96
aI9
aI107
aI43
aI28
aI87
aI55
aI54
aI26
aI78
aI75
aI123
aI1
aI38
aI111
aI11
aI40
aI120
aI37
aI24
aI126
aI98
aI8
aI99
aI119
aI121
aI33
aI58
aI95
aI41
aI57
aI42
aI32
aI23
aI103
aI7
aI102
aI25
aI88
aI53
aI86
aI18
aI108
aI45
aI117
aI31
aI22
aI76
aI48
aI115
aI69
aI71
aI116
aI113
aI84
aI82
aI14
aI46
aI106
aI50
aI90
aI36
aI27
aI62
aI13
aI101
aI39
aI97
aI100
aI92
aI124
aI72
aI65
aI73
aI19
aI59
aI118
aI17
aI68
aI34
aa(lp67
I0
aI61
aI95
aI106
aI110
aI38
aI53
aI101
aI55
aI35
aI19
aI117
aI91
aI63
aI115
aI99
aI90
aI33
aI80
aI10
aI72
aI23
aI123
aI21
aI108
aI118
aI94
aI96
aI120
aI82
aI112
aI51
aI45
aI17
aI81
aI9
aI40
aI84
aI5
aI79
aI36
aI58
aI74
aI83
aI124
aI32
aI75
aI52
aI54
aI125
aI59
aI31
aI47
aI6
aI48
aI8
aI60
aI114
aI41
aI50
aI56
aI1
aI88
aI13
aI87
aI122
aI73
aI76
aI105
aI70
aI69
aI126
aI20
aI66
aI42
aI46
aI67
aI111
aI102
aI39
aI18
aI34
aI29
aI43
aI37
aI116
aI104
aI64
aI62
aI121
aI16
aI12
aI100
aI103
aI26
aI2
aI27
aI119
aI127
aI15
aI92
aI7
aI78
aI93
aI86
aI68
aI3
aI107
aI24
aI113
aI4
aI77
aI30
aI109
aI57
aI14
aI85
aI11
aI25
aI97
aI28
aI89
aI65
aI22
aI44
aI49
aI71
aI98
aa(lp68
I0
aI62
aI31
aI107
aI78
aI88
aI116
aI63
aI39
aI21
aI44
aI40
aI58
aI109
aI94
aI73
aI82
aI70
aI75
aI25
aI22
aI9
aI20
aI90
aI29
aI19
aI119
aI114
aI47
aI24
aI101
aI2
aI41
aI127
aI35
aI34
aI100
aI110
aI77
aI8
aI11
aI32
aI69
aI112
aI10
aI46
aI45
aI28
aI79
aI98
aI72
aI67
aI122
aI118
aI57
aI74
aI86
aI54
aI12
aI106
aI115
aI104
aI1
aI7
aI85
aI124
aI126
aI51
aI80
aI42
aI17
aI89
aI50
aI15
aI55
aI18
aI103
aI38
aI4
aI48
aI68
aI125
aI16
aI95
aI99
aI64
aI56
aI92
aI5
aI71
aI23
aI111
aI87
aI108
aI14
aI83
aI102
aI123
aI49
aI84
aI36
aI30
aI96
aI76
aI61
aI121
aI59
aI3
aI93
aI13
aI37
aI91
aI43
aI117
aI27
aI60
aI6
aI113
aI53
aI26
aI120
aI105
aI52
aI97
aI65
aI81
aI66
aI33
aa(lp69
I0
aI63
aI94
aI21
aI47
aI114
aI75
aI9
aI86
aI7
aI57
aI98
aI100
aI34
aI69
aI46
aI43
aI26
aI66
aI105
aI93
aI3
aI49
aI30
aI50
aI48
aI17
aI124
aI99
aI95
aI23
aI108
aI84
aI36
aI13
aI59
aI33
aI120
aI117
aI53
aI111
aI87
aI64
aI16
aI89
aI85
aI15
aI4
aI25
aI22
aI24
aI119
aI73
aI39
aI62
aI116
aI112
aI10
aI110
aI35
aI74
aI79
aI54
aI1
aI42
aI126
aI18
aI103
aI71
aI14
aI92
aI68
aI81
aI52
aI60
aI6
aI123
aI96
aI91
aI61
aI118
aI72
aI106
aI115
aI32
aI45
aI8
aI41
aI109
aI44
aI107
aI78
aI70
aI20
aI2
aI29
aI77
aI127
aI11
aI28
aI12
aI104
aI122
aI67
aI101
aI19
aI82
aI90
aI31
aI88
aI58
aI40
aI56
aI125
aI5
aI83
aI55
aI38
aI80
aI51
aI37
aI121
aI102
aI76
aI27
aI113
aI65
aI97
aa(lp70
I0
aI64
aI32
aI65
aI16
aI63
aI97
aI45
aI8
aI27
aI94
aI111
aI113
aI41
aI87
aI21
aI4
aI114
aI76
aI72
aI47
aI15
aI118
aI102
aI121
aI115
aI85
aI9
aI106
aI37
aI75
aI89
aI2
aI55
aI57
aI84
aI38
aI29
aI36
aI98
aI86
aI13
aI70
aI80
aI59
aI7
aI51
aI20
aI125
aI78
aI120
aI46
aI107
aI56
aI69
aI33
aI53
aI34
aI83
aI44
aI100
aI117
aI109
aI5
aI1
aI3
aI90
aI126
aI93
aI54
aI42
aI82
aI19
aI103
aI79
aI30
aI18
aI101
aI49
aI74
aI43
aI110
aI71
aI58
aI35
aI26
aI40
aI14
aI92
aI31
aI66
aI112
aI88
aI68
aI10
aI105
aI127
aI6
aI39
aI108
aI60
aI77
aI23
aI73
aI116
aI95
aI28
aI52
aI99
aI62
aI81
aI11
aI91
aI12
aI17
aI25
aI104
aI61
aI22
aI124
aI50
aI24
aI123
aI122
aI119
aI48
aI67
aI96
aa(lp71
I0
aI65
aI97
aI63
aI113
aI21
aI94
aI27
aI121
aI9
aI75
aI37
aI47
aI102
aI76
aI114
aI125
aI46
aI69
aI56
aI100
aI5
aI83
aI34
aI86
aI80
aI51
aI7
aI38
aI98
aI57
aI55
aI127
aI108
aI23
aI77
aI99
aI11
aI28
aI95
aI50
aI122
aI67
aI48
aI104
aI124
aI17
aI12
aI43
aI58
aI40
aI26
aI88
aI105
aI66
aI31
aI19
aI30
aI49
aI101
aI93
aI82
aI90
aI3
aI126
aI1
aI54
aI42
aI74
aI18
aI103
aI79
aI112
aI92
aI68
aI10
aI14
aI35
aI110
aI71
aI25
aI91
aI61
aI22
aI96
aI119
aI24
aI123
aI52
aI116
aI62
aI81
aI73
aI60
aI6
aI39
aI84
aI2
aI29
aI36
aI20
aI59
aI13
aI70
aI44
aI53
aI117
aI109
aI33
aI107
aI78
aI120
aI72
aI4
aI15
aI118
aI89
aI106
aI115
aI85
aI111
aI8
aI41
aI87
aI45
aI16
aI64
aI32
aa(lp72
I0
aI66
aI33
aI62
aI81
aI107
aI31
aI65
aI105
aI63
aI116
aI120
aI78
aI52
aI97
aI88
aI117
aI73
aI94
aI43
aI58
aI27
aI60
aI109
aI39
aI53
aI26
aI21
aI113
aI40
aI44
aI6
aI123
aI2
aI101
aI102
aI47
aI49
aI84
aI24
aI29
aI96
aI76
aI19
aI30
aI114
aI119
aI36
aI82
aI37
aI91
aI70
aI13
aI25
aI75
aI93
aI121
aI90
aI20
aI61
aI22
aI59
aI3
aI9
aI124
aI7
aI1
aI85
aI115
aI126
aI51
aI104
aI86
aI17
aI89
aI54
aI42
aI106
aI12
aI80
aI79
aI4
aI48
aI98
aI38
aI67
aI72
aI103
aI15
aI74
aI57
aI50
aI122
aI55
aI18
aI118
aI41
aI14
aI83
aI127
aI108
aI34
aI35
aI87
aI71
aI8
aI77
aI5
aI100
aI23
aI111
aI110
aI125
aI28
aI45
aI68
aI10
aI16
aI95
aI46
aI11
aI56
aI92
aI32
aI64
aI112
aI69
aI99
aa(lp73
I0
aI67
aI96
aI64
aI48
aI65
aI32
aI119
aI24
aI45
aI97
aI50
aI16
aI123
aI122
aI63
aI12
aI21
aI87
aI91
aI113
aI17
aI25
aI41
aI8
aI22
aI124
aI27
aI61
aI111
aI94
aI104
aI6
aI89
aI75
aI127
aI106
aI39
aI108
aI37
aI121
aI23
aI73
aI115
aI77
aI9
aI85
aI60
aI4
aI81
aI11
aI114
aI62
aI72
aI76
aI99
aI95
aI102
aI118
aI116
aI47
aI28
aI52
aI15
aI3
aI5
aI109
aI1
aI100
aI90
aI126
aI117
aI53
aI42
aI82
aI34
aI54
aI44
aI83
aI93
aI125
aI49
aI74
aI78
aI101
aI46
aI120
aI18
aI103
aI33
aI69
aI19
aI107
aI79
aI30
aI56
aI2
aI10
aI105
aI55
aI68
aI84
aI57
aI88
aI31
aI98
aI36
aI92
aI38
aI66
aI112
aI29
aI110
aI20
aI51
aI43
aI59
aI71
aI58
aI7
aI86
aI40
aI14
aI13
aI26
aI80
aI70
aI35
aa(lp74
I0
aI68
aI34
aI60
aI17
aI20
aI30
aI118
aI73
aI83
aI10
aI65
aI15
aI19
aI59
aI12
aI101
aI4
aI104
aI13
aI5
aI39
aI97
aI112
aI70
aI124
aI72
aI49
aI92
aI63
aI6
aI100
aI115
aI93
aI2
aI48
aI52
aI69
aI71
aI21
aI67
aI84
aI82
aI85
aI113
aI110
aI56
aI116
aI35
aI27
aI62
aI125
aI36
aI122
aI89
aI90
aI46
aI81
aI94
aI14
aI3
aI106
aI50
aI29
aI120
aI11
aI111
aI40
aI1
aI37
aI24
aI38
aI26
aI8
aI99
aI78
aI98
aI123
aI75
aI126
aI96
aI57
aI42
aI9
aI41
aI43
aI107
aI95
aI121
aI54
aI55
aI119
aI28
aI33
aI58
aI87
aI80
aI22
aI76
aI74
aI31
aI16
aI127
aI117
aI18
aI114
aI61
aI86
aI109
aI108
aI45
aI66
aI23
aI44
aI105
aI32
aI47
aI103
aI7
aI91
aI64
aI88
aI53
aI77
aI25
aI51
aI79
aI102
aa(lp75
I0
aI69
aI99
aI66
aI112
aI62
aI33
aI64
aI56
aI65
aI31
aI11
aI81
aI92
aI32
aI107
aI28
aI88
aI97
aI125
aI78
aI45
aI68
aI52
aI105
aI95
aI46
aI63
aI16
aI120
aI116
aI10
aI14
aI6
aI44
aI41
aI113
aI83
aI127
aI40
aI39
aI35
aI87
aI53
aI34
aI21
aI26
aI108
aI117
aI111
aI110
aI73
aI23
aI43
aI94
aI100
aI8
aI109
aI60
aI71
aI58
aI77
aI5
aI27
aI7
aI9
aI3
aI124
aI22
aI1
aI85
aI59
aI121
aI51
aI104
aI90
aI126
aI61
aI20
aI115
aI82
aI12
aI80
aI37
aI106
aI70
aI91
aI42
aI17
aI93
aI75
aI86
aI13
aI89
aI54
aI25
aI123
aI18
aI118
aI2
aI55
aI102
aI101
aI122
aI74
aI24
aI84
aI15
aI47
aI57
aI50
aI49
aI4
aI36
aI119
aI79
aI30
aI48
aI98
aI114
aI29
aI72
aI103
aI96
aI67
aI19
aI76
aI38
aa(lp76
I0
aI70
aI35
aI67
aI80
aI64
aI96
aI26
aI40
aI119
aI32
aI86
aI48
aI14
aI13
aI65
aI20
aI63
aI122
aI110
aI16
aI51
aI43
aI123
aI24
aI58
aI7
aI45
aI71
aI50
aI97
aI59
aI10
aI104
aI94
aI2
aI61
aI105
aI55
aI111
aI8
aI57
aI88
aI22
aI84
aI27
aI124
aI68
aI12
aI112
aI29
aI21
aI66
aI91
aI87
aI38
aI98
aI41
aI25
aI31
aI113
aI36
aI92
aI17
aI5
aI15
aI52
aI3
aI47
aI109
aI1
aI28
aI95
aI126
aI117
aI102
aI90
aI116
aI118
aI100
aI4
aI83
aI93
aI81
aI44
aI114
aI11
aI54
aI42
aI99
aI76
aI53
aI62
aI82
aI34
aI72
aI6
aI30
aI56
aI89
aI79
aI127
aI75
aI107
aI33
aI37
aI108
aI103
aI106
aI69
aI19
aI39
aI49
aI60
aI85
aI125
aI77
aI74
aI78
aI9
aI121
aI120
aI18
aI23
aI46
aI115
aI73
aI101
aa(lp77
I0
aI71
aI98
aI61
aI49
aI106
aI95
aI44
aI89
aI101
aI53
aI28
aI110
aI65
aI22
aI38
aI109
aI99
aI115
aI30
aI91
aI57
aI14
aI63
aI55
aI25
aI97
aI35
aI11
aI117
aI19
aI85
aI119
aI51
aI112
aI27
aI120
aI127
aI15
aI82
aI108
aI78
aI93
aI118
aI7
aI96
aI94
aI92
aI90
aI4
aI77
aI33
aI113
aI10
aI80
aI24
aI68
aI21
aI123
aI86
aI72
aI3
aI107
aI23
aI122
aI13
aI88
aI87
aI56
aI73
aI76
aI1
aI60
aI69
aI126
aI114
aI70
aI50
aI41
aI105
aI54
aI102
aI39
aI125
aI111
aI31
aI59
aI67
aI66
aI8
aI48
aI20
aI47
aI42
aI46
aI6
aI45
aI26
aI2
aI17
aI103
aI9
aI81
aI100
aI121
aI79
aI5
aI62
aI40
aI16
aI12
aI84
aI34
aI52
aI75
aI18
aI124
aI29
aI43
aI32
aI36
aI104
aI64
aI58
aI116
aI83
aI74
aI37
aa(lp78
I0
aI72
aI36
aI56
aI18
aI105
aI28
aI24
aI9
aI8
aI117
aI51
aI14
aI93
aI12
aI39
aI69
aI29
aI4
aI65
aI123
aI95
aI88
aI74
aI7
aI109
aI111
aI121
aI6
aI17
aI82
aI35
aI99
aI96
aI79
aI31
aI2
aI46
aI97
aI15
aI124
aI60
aI110
aI90
aI44
aI86
aI37
aI87
aI66
aI103
aI119
aI11
aI118
aI63
aI125
aI84
aI3
aI71
aI73
aI104
aI41
aI75
aI80
aI53
aI112
aI19
aI48
aI81
aI102
aI16
aI78
aI57
aI1
aI58
aI23
aI61
aI113
aI89
aI70
aI34
aI62
aI67
aI30
aI92
aI55
aI120
aI45
aI47
aI22
aI77
aI43
aI126
aI83
aI13
aI106
aI21
aI33
aI38
aI114
aI32
aI122
aI116
aI68
aI49
aI59
aI5
aI94
aI115
aI127
aI25
aI42
aI26
aI64
aI76
aI98
aI107
aI101
aI10
aI52
aI50
aI85
aI27
aI100
aI20
aI40
aI54
aI91
aI108
aa(lp79
I0
aI73
aI101
aI70
aI115
aI67
aI35
aI46
aI120
aI26
aI96
aI121
aI80
aI18
aI23
aI64
aI60
aI65
aI13
aI49
aI48
aI85
aI125
aI14
aI40
aI78
aI9
aI119
aI74
aI86
aI32
aI77
aI30
aI59
aI97
aI6
aI71
aI56
aI89
aI50
aI24
aI75
aI107
aI58
aI127
aI45
aI7
aI79
aI20
aI19
aI39
aI63
aI69
aI110
aI122
aI106
aI37
aI123
aI43
aI33
aI16
aI108
aI103
aI51
aI15
aI17
aI92
aI5
aI113
aI52
aI3
aI36
aI98
aI1
aI28
aI41
aI109
aI31
aI25
aI47
aI12
aI118
aI100
aI112
aI116
aI21
aI29
aI90
aI126
aI38
aI87
aI95
aI66
aI117
aI102
aI91
aI10
aI34
aI72
aI104
aI82
aI2
aI94
aI62
aI99
aI111
aI55
aI42
aI61
aI76
aI53
aI105
aI83
aI68
aI124
aI4
aI84
aI93
aI81
aI27
aI8
aI11
aI54
aI57
aI114
aI22
aI88
aI44
aa(lp80
I0
aI74
aI37
aI71
aI83
aI61
aI98
aI116
aI104
aI44
aI95
aI36
aI49
aI64
aI58
aI106
aI52
aI38
aI22
aI34
aI110
aI75
aI18
aI65
aI89
aI43
aI32
aI101
aI29
aI28
aI53
aI124
aI26
aI85
aI19
aI45
aI11
aI2
aI17
aI117
aI55
aI81
aI100
aI25
aI9
aI35
aI97
aI103
aI109
aI12
aI84
aI99
aI16
aI30
aI115
aI40
aI79
aI63
aI14
aI121
aI91
aI5
aI62
aI57
aI13
aI23
aI107
aI122
aI72
aI88
aI87
aI3
aI68
aI76
aI1
aI21
aI73
aI86
aI123
aI56
aI90
aI41
aI105
aI4
aI50
aI33
aI77
aI70
aI69
aI24
aI80
aI60
aI113
aI126
aI114
aI10
aI119
aI46
aI6
aI51
aI42
aI27
aI112
aI47
aI8
aI82
aI15
aI66
aI120
aI48
aI20
aI127
aI102
aI92
aI94
aI54
aI7
aI39
aI125
aI96
aI108
aI59
aI67
aI78
aI31
aI118
aI93
aI111
aa(lp81
I0
aI75
aI100
aI57
aI50
aI23
aI93
aI66
aI25
aI62
aI74
aI110
aI111
aI15
aI33
aI13
aI77
aI122
aI31
aI82
aI37
aI65
aI55
aI5
aI118
aI8
aI70
aI107
aI81
aI91
aI71
aI18
aI103
aI14
aI61
aI52
aI78
aI20
aI41
aI72
aI83
aI38
aI97
aI121
aI90
aI88
aI67
aI127
aI59
aI120
aI4
aI87
aI35
aI79
aI116
aI22
aI105
aI3
aI108
aI48
aI98
aI34
aI9
aI63
aI114
aI21
aI7
aI46
aI95
aI124
aI26
aI30
aI39
aI119
aI10
aI1
aI85
aI16
aI36
aI53
aI104
aI28
aI19
aI40
aI113
aI76
aI125
aI51
aI45
aI115
aI44
aI29
aI96
aI6
aI126
aI68
aI92
aI42
aI60
aI123
aI2
aI109
aI106
aI32
aI80
aI56
aI102
aI27
aI58
aI101
aI11
aI12
aI117
aI84
aI64
aI89
aI54
aI112
aI24
aI73
aI49
aI43
aI17
aI99
aI69
aI86
aI94
aI47
aa(lp82
I0
aI76
aI38
aI69
aI19
aI66
aI99
aI67
aI72
aI64
aI33
aI29
aI112
aI103
aI96
aI62
aI36
aI107
aI32
aI4
aI81
aI119
aI79
aI92
aI56
aI98
aI114
aI65
aI48
aI11
aI31
aI30
aI18
aI10
aI116
aI123
aI16
aI118
aI2
aI120
aI105
aI101
aI122
aI95
aI102
aI63
aI46
aI55
aI28
aI50
aI49
aI88
aI57
aI125
aI97
aI47
aI24
aI52
aI68
aI74
aI78
aI84
aI15
aI45
aI9
aI27
aI5
aI7
aI58
aI3
aI124
aI77
aI8
aI85
aI59
aI109
aI1
aI71
aI60
aI22
aI117
aI20
aI115
aI111
aI61
aI73
aI110
aI126
aI51
aI100
aI94
aI121
aI23
aI104
aI90
aI43
aI14
aI54
aI25
aI6
aI89
aI41
aI44
aI13
aI93
aI40
aI127
aI17
aI113
aI75
aI86
aI83
aI12
aI108
aI26
aI82
aI34
aI80
aI37
aI21
aI39
aI91
aI42
aI35
aI70
aI53
aI87
aI106
aa(lp83
I0
aI77
aI103
aI59
aI114
aI104
aI92
aI117
aI57
aI82
aI52
aI87
aI46
aI40
aI123
aI89
aI93
aI55
aI41
aI116
aI26
aI125
aI106
aI24
aI23
aI65
aI20
aI79
aI124
aI76
aI109
aI112
aI111
aI81
aI90
aI98
aI85
aI96
aI58
aI69
aI13
aI18
aI127
aI63
aI53
aI68
aI12
aI47
aI74
aI70
aI97
aI108
aI10
aI44
aI102
aI17
aI62
aI8
aI38
aI3
aI119
aI115
aI56
aI43
aI118
aI25
aI105
aI83
aI45
aI39
aI49
aI80
aI107
aI110
aI48
aI121
aI29
aI1
aI99
aI27
aI71
aI33
aI9
aI67
aI126
aI36
aI94
aI11
aI91
aI15
aI34
aI88
aI6
aI16
aI86
aI101
aI37
aI50
aI35
aI78
aI113
aI95
aI54
aI2
aI5
aI66
aI22
aI72
aI51
aI30
aI73
aI32
aI31
aI100
aI4
aI61
aI19
aI7
aI64
aI60
aI122
aI75
aI120
aI14
aI28
aI21
aI84
aI42
aa(lp84
I0
aI78
aI39
aI58
aI82
aI22
aI29
aI47
aI41
aI100
aI11
aI10
aI79
aI122
aI86
aI115
aI85
aI80
aI50
aI103
aI68
aI99
aI5
aI87
aI102
aI36
aI61
aI93
aI43
aI6
aI120
aI65
aI107
aI63
aI40
aI73
aI25
aI90
aI114
aI2
aI34
aI8
aI112
aI28
aI67
aI74
aI106
aI7
aI51
aI89
aI18
aI48
aI95
aI92
aI111
aI83
aI84
aI76
aI3
aI91
aI60
aI26
aI97
aI33
aI116
aI31
aI94
aI44
aI20
aI75
aI101
aI119
aI77
aI35
aI45
aI69
aI57
aI72
aI1
aI12
aI17
aI126
aI4
aI55
aI56
aI16
aI14
aI23
aI96
aI49
aI37
aI59
aI53
aI27
aI66
aI52
aI88
aI62
aI109
aI21
aI9
aI70
aI24
aI19
aI110
aI127
aI46
aI32
aI118
aI98
aI104
aI54
aI42
aI124
aI38
aI15
aI64
aI125
aI108
aI71
aI30
aI123
aI13
aI121
aI113
aI117
aI81
aI105
aa(lp85
I0
aI79
aI102
aI68
aI51
aI60
aI34
aI25
aI88
aI118
aI30
aI64
aI17
aI53
aI77
aI20
aI44
aI12
aI59
aI23
aI15
aI105
aI32
aI19
aI73
aI7
aI91
aI83
aI103
aI65
aI10
aI47
aI22
aI100
aI6
aI80
aI92
aI76
aI74
aI63
aI70
aI127
aI117
aI124
aI16
aI49
aI72
aI31
aI101
aI45
aI66
aI4
aI108
aI13
aI104
aI109
aI114
aI112
aI97
aI18
aI5
aI61
aI86
aI39
aI11
aI29
aI50
aI120
aI3
aI111
aI40
aI106
aI46
aI24
aI38
aI81
aI37
aI14
aI94
aI1
aI35
aI75
aI126
aI27
aI123
aI125
aI62
aI98
aI8
aI90
aI89
aI26
aI36
aI99
aI78
aI122
aI115
aI58
aI87
aI93
aI33
aI48
aI2
aI28
aI54
aI21
aI71
aI121
aI52
aI55
aI119
aI69
aI57
aI116
aI56
aI96
aI113
aI42
aI9
aI110
aI67
aI107
aI95
aI84
aI43
aI85
aI82
aI41
aa(lp86
I0
aI80
aI40
aI48
aI20
aI16
aI24
aI71
aI10
aI61
aI8
aI84
aI12
aI66
aI98
aI113
aI5
aI47
aI95
aI90
aI4
aI44
aI42
aI62
aI6
aI79
aI33
aI106
aI49
aI77
aI121
aI46
aI67
aI26
aI86
aI65
aI110
aI123
aI45
aI59
aI2
aI111
aI22
aI68
aI21
aI38
aI31
aI17
aI3
aI28
aI102
aI100
aI81
aI54
aI53
aI72
aI89
aI107
aI103
aI39
aI125
aI9
aI23
aI101
aI96
aI35
aI13
aI32
aI43
aI122
aI97
aI7
aI55
aI94
aI124
aI88
aI87
aI29
aI92
aI25
aI1
aI52
aI118
aI117
aI11
aI93
aI34
aI76
aI75
aI56
aI19
aI108
aI78
aI85
aI73
aI18
aI64
aI70
aI14
aI119
aI51
aI63
aI50
aI58
aI105
aI104
aI27
aI57
aI91
aI112
aI36
aI41
aI109
aI15
aI116
aI126
aI114
aI83
aI82
aI99
aI127
aI30
aI69
aI37
aI74
aI60
aI115
aI120
aa(lp87
I0
aI81
aI105
aI78
aI117
aI58
aI39
aI113
aI123
aI47
aI29
aI30
aI82
aI13
aI121
aI22
aI124
aI115
aI86
aI42
aI79
aI38
aI15
aI122
aI41
aI108
aI71
aI100
aI125
aI10
aI11
aI64
aI62
aI65
aI120
aI88
aI43
aI109
aI21
aI6
aI102
aI24
aI19
aI36
aI70
aI93
aI61
aI9
aI85
aI104
aI54
aI80
aI98
aI103
aI50
aI118
aI127
aI87
aI5
aI110
aI68
aI46
aI32
aI99
aI31
aI33
aI97
aI116
aI60
aI94
aI44
aI26
aI84
aI101
aI119
aI76
aI75
aI91
aI3
aI20
aI51
aI1
aI12
aI89
aI72
aI48
aI18
aI57
aI35
aI83
aI111
aI77
aI95
aI45
aI69
aI92
aI107
aI66
aI52
aI63
aI27
aI73
aI40
aI53
aI49
aI2
aI114
aI96
aI25
aI37
aI59
aI90
aI126
aI7
aI106
aI17
aI67
aI4
aI55
aI74
aI34
aI14
aI23
aI8
aI16
aI28
aI112
aI56
aa(lp88
I0
aI82
aI41
aI79
aI85
aI68
aI102
aI43
aI107
aI25
aI34
aI67
aI51
aI95
aI84
aI60
aI116
aI20
aI77
aI57
aI17
aI56
aI96
aI53
aI88
aI9
aI110
aI118
aI42
aI64
aI30
aI113
aI58
aI47
aI10
aI115
aI103
aI87
aI93
aI65
aI73
aI2
aI28
aI7
aI48
aI83
aI91
aI33
aI44
aI119
aI69
aI12
aI55
aI23
aI59
aI52
aI21
aI19
aI32
aI54
aI15
aI71
aI121
aI105
aI29
aI39
aI86
aI11
aI5
aI50
aI120
aI61
aI114
aI40
aI106
aI112
aI111
aI18
aI97
aI3
aI101
aI94
aI1
aI45
aI14
aI4
aI66
aI37
aI24
aI109
aI104
aI46
aI108
aI38
aI81
aI13
aI22
aI78
aI122
aI100
aI99
aI80
aI6
aI36
aI90
aI63
aI74
aI8
aI92
aI89
aI26
aI76
aI75
aI31
aI72
aI35
aI16
aI126
aI27
aI49
aI70
aI62
aI98
aI127
aI125
aI124
aI117
aI123
aa(lp89
I0
aI83
aI104
aI49
aI52
aI110
aI89
aI29
aI26
aI11
aI55
aI9
aI109
aI16
aI79
aI91
aI13
aI72
aI68
aI73
aI90
aI50
aI69
aI113
aI119
aI42
aI8
aI120
aI102
aI7
aI108
aI31
aI71
aI116
aI36
aI106
aI34
aI65
aI101
aI124
aI45
aI117
aI25
aI103
aI99
aI40
aI121
aI57
aI122
aI3
aI21
aI56
aI4
aI70
aI60
aI10
aI51
aI47
aI66
aI127
aI54
aI96
aI78
aI111
aI98
aI37
aI58
aI95
aI18
aI22
aI53
aI32
aI17
aI19
aI97
aI100
aI115
aI84
aI62
aI14
aI87
aI107
aI123
aI1
aI77
aI105
aI114
aI80
aI112
aI6
aI20
aI15
aI125
aI94
aI93
aI67
aI61
aI74
aI64
aI44
aI75
aI38
aI28
aI43
aI2
aI85
aI35
aI81
aI30
aI12
aI5
aI63
aI88
aI23
aI86
aI76
aI33
aI41
aI126
aI24
aI27
aI46
aI48
aI82
aI39
aI92
aI118
aI59
aa(lp90
I0
aI84
aI42
aI77
aI21
aI59
aI103
aI28
aI75
aI117
aI92
aI122
aI114
aI120
aI14
aI104
aI100
aI89
aI123
aI31
aI46
aI4
aI61
aI40
aI57
aI64
aI60
aI82
aI7
aI87
aI52
aI19
aI50
aI112
aI109
aI37
aI124
aI35
aI78
aI76
aI23
aI54
aI2
aI65
aI95
aI79
aI20
aI113
aI93
aI73
aI32
aI55
aI30
aI116
aI41
aI51
aI66
aI24
aI106
aI5
aI26
aI22
aI72
aI125
aI25
aI43
aI56
aI118
aI119
aI105
aI83
aI115
aI62
aI49
aI80
aI8
aI39
aI3
aI38
aI45
aI74
aI99
aI27
aI70
aI1
aI108
aI97
aI29
aI110
aI17
aI102
aI107
aI10
aI48
aI121
aI44
aI111
aI86
aI101
aI81
aI16
aI98
aI90
aI6
aI15
aI69
aI58
aI91
aI85
aI34
aI88
aI96
aI33
aI47
aI12
aI71
aI53
aI9
aI67
aI68
aI13
aI94
aI11
aI18
aI36
aI63
aI127
aI126
aa(lp91
I0
aI85
aI107
aI51
aI116
aI17
aI88
aI42
aI58
aI103
aI73
aI48
aI44
aI55
aI21
aI15
aI29
aI5
aI114
aI111
aI101
aI14
aI24
aI108
aI22
aI99
aI90
aI92
aI75
aI16
aI70
aI125
aI79
aI43
aI67
aI60
aI57
aI53
aI118
aI113
aI115
aI65
aI7
aI33
aI12
aI52
aI54
aI105
aI11
aI61
aI112
aI3
aI45
aI37
aI46
aI13
aI100
aI36
aI8
aI76
aI35
aI49
aI127
aI123
aI102
aI41
aI84
aI34
aI96
aI77
aI30
aI110
aI93
aI10
aI91
aI28
aI59
aI69
aI121
aI32
aI120
aI86
aI97
aI106
aI66
aI1
aI81
aI104
aI6
aI122
aI26
aI74
aI27
aI72
aI117
aI98
aI68
aI82
aI95
aI25
aI56
aI20
aI64
aI9
aI87
aI47
aI83
aI2
aI23
aI119
aI71
aI19
aI50
aI39
aI18
aI40
aI4
aI94
aI38
aI109
aI80
aI78
aI89
aI63
aI126
aI31
aI124
aI62
aa(lp92
I0
aI86
aI43
aI50
aI84
aI111
aI25
aI112
aI42
aI81
aI118
aI109
aI77
aI101
aI56
aI37
aI21
aI98
aI105
aI124
aI59
aI16
aI119
aI35
aI103
aI6
aI115
aI78
aI28
aI90
aI83
aI76
aI75
aI69
aI49
aI23
aI117
aI15
aI62
aI54
aI92
aI91
aI8
aI2
aI122
aI58
aI80
aI65
aI114
aI34
aI3
aI95
aI120
aI85
aI39
aI79
aI14
aI96
aI45
aI20
aI104
aI88
aI38
aI113
aI100
aI47
aI99
aI93
aI89
aI33
aI74
aI73
aI123
aI71
aI70
aI32
aI31
aI12
aI27
aI55
aI46
aI9
aI108
aI30
aI4
aI53
aI1
aI116
aI61
aI68
aI29
aI41
aI40
aI67
aI97
aI51
aI57
aI94
aI17
aI66
aI64
aI13
aI110
aI24
aI60
aI18
aI107
aI106
aI82
aI11
aI102
aI5
aI7
aI63
aI48
aI26
aI87
aI36
aI10
aI22
aI52
aI126
aI44
aI72
aI19
aI127
aI121
aI125
aa(lp93
I0
aI87
aI106
aI76
aI53
aI69
aI38
aI70
aI91
aI67
aI99
aI39
aI19
aI42
aI35
aI66
aI108
aI62
aI96
aI12
aI112
aI26
aI82
aI103
aI72
aI37
aI21
aI64
aI80
aI29
aI33
aI34
aI54
aI30
aI31
aI14
aI48
aI25
aI6
aI11
aI56
aI44
aI13
aI98
aI41
aI65
aI114
aI89
aI36
aI86
aI83
aI107
aI75
aI4
aI32
aI113
aI40
aI92
aI79
aI93
aI81
aI127
aI17
aI119
aI27
aI45
aI15
aI9
aI78
aI5
aI7
aI84
aI24
aI124
aI77
aI52
aI3
aI74
aI68
aI58
aI28
aI60
aI22
aI50
aI71
aI88
aI49
aI1
aI85
aI47
aI97
aI8
aI57
aI59
aI109
aI125
aI18
aI90
aI43
aI10
aI104
aI123
aI116
aI23
aI100
aI120
aI2
aI51
aI16
aI94
aI121
aI118
aI20
aI55
aI46
aI117
aI102
aI115
aI111
aI63
aI105
aI110
aI126
aI101
aI73
aI95
aI122
aI61
aa(lp94
I0
aI88
aI44
aI73
aI22
aI70
aI101
aI114
aI11
aI46
aI35
aI8
aI115
aI54
aI57
aI67
aI68
aI64
aI23
aI83
aI80
aI124
aI4
aI18
aI120
aI81
aI27
aI26
aI93
aI121
aI96
aI84
aI34
aI77
aI32
aI10
aI74
aI72
aI104
aI86
aI40
aI94
aI62
aI78
aI2
aI119
aI9
aI82
aI60
aI53
aI105
aI65
aI76
aI49
aI13
aI61
aI111
aI14
aI125
aI99
aI48
aI55
aI42
aI85
aI17
aI51
aI103
aI15
aI16
aI92
aI5
aI108
aI37
aI3
aI36
aI123
aI52
aI33
aI43
aI113
aI20
aI25
aI47
aI19
aI31
aI63
aI39
aI109
aI1
aI106
aI122
aI98
aI69
aI28
aI41
aI110
aI30
aI102
aI91
aI59
aI117
aI6
aI97
aI66
aI38
aI50
aI89
aI126
aI71
aI87
aI95
aI56
aI118
aI79
aI7
aI12
aI127
aI100
aI112
aI45
aI24
aI29
aI90
aI75
aI21
aI58
aI107
aI116
aa(lp95
I0
aI89
aI109
aI55
aI119
aI108
aI90
aI68
aI122
aI60
aI54
aI66
aI45
aI121
aI34
aI36
aI61
aI28
aI30
aI35
aI27
aI118
aI33
aI86
aI87
aI114
aI125
aI20
aI17
aI62
aI18
aI58
aI95
aI22
aI14
aI19
aI15
aI94
aI80
aI107
aI76
aI41
aI59
aI46
aI81
aI12
aI43
aI74
aI106
aI65
aI57
aI117
aI127
aI96
aI10
aI3
aI73
aI50
aI31
aI42
aI9
aI16
aI29
aI83
aI110
aI49
aI11
aI91
aI7
aI120
aI72
aI113
aI70
aI56
aI47
aI111
aI40
aI103
aI116
aI124
aI38
aI44
aI85
aI63
aI92
aI82
aI23
aI24
aI105
aI1
aI6
aI67
aI84
aI100
aI37
aI32
aI53
aI98
aI97
aI115
aI93
aI112
aI123
aI77
aI126
aI88
aI48
aI39
aI5
aI2
aI64
aI75
aI101
aI71
aI25
aI99
aI78
aI51
aI21
aI4
aI69
aI13
aI8
aI102
aI79
aI26
aI104
aI52
aa(lp96
I0
aI90
aI45
aI54
aI87
aI18
aI27
aI30
aI106
aI10
aI9
aI31
aI76
aI43
aI15
aI14
aI53
aI123
aI5
aI48
aI69
aI104
aI78
aI25
aI38
aI23
aI84
aI6
aI70
aI116
aI7
aI11
aI91
aI120
aI124
aI56
aI67
aI100
aI24
aI44
aI99
aI51
aI52
aI13
aI39
aI2
aI77
aI98
aI19
aI94
aI74
aI41
aI42
aI16
aI3
aI65
aI35
aI118
aI58
aI114
aI66
aI121
aI68
aI89
aI108
aI55
aI60
aI36
aI62
aI20
aI28
aI86
aI96
aI117
aI50
aI83
aI12
aI46
aI22
aI107
aI112
aI115
aI88
aI75
aI26
aI102
aI71
aI4
aI82
aI63
aI1
aI32
aI103
aI111
aI49
aI113
aI72
aI110
aI47
aI40
aI37
aI105
aI85
aI92
aI21
aI101
aI8
aI79
aI64
aI126
aI97
aI93
aI80
aI95
aI59
aI81
aI29
aI73
aI57
aI127
aI33
aI61
aI125
aI17
aI34
aI122
aI109
aI119
aa(lp97
I0
aI91
aI108
aI72
aI54
aI56
aI36
aI40
aI27
aI24
aI28
aI85
aI18
aI100
aI20
aI105
aI76
aI39
aI12
aI64
aI14
aI98
aI107
aI93
aI9
aI52
aI50
aI8
aI10
aI51
aI117
aI101
aI38
aI35
aI82
aI33
aI6
aI114
aI32
aI17
aI7
aI68
aI49
aI109
aI116
aI121
aI111
aI122
aI69
aI42
aI26
aI29
aI25
aI65
aI4
aI127
aI5
aI74
aI88
aI59
aI123
aI94
aI115
aI95
aI19
aI53
aI80
aI112
aI41
aI48
aI81
aI75
aI3
aI78
aI57
aI71
aI16
aI104
aI73
aI102
aI66
aI70
aI34
aI103
aI89
aI11
aI119
aI113
aI58
aI84
aI125
aI1
aI118
aI23
aI61
aI63
aI99
aI106
aI21
aI96
aI13
aI31
aI79
aI83
aI77
aI15
aI97
aI22
aI2
aI43
aI126
aI46
aI67
aI87
aI37
aI62
aI44
aI30
aI92
aI86
aI124
aI45
aI47
aI60
aI120
aI90
aI110
aI55
aa(lp98
I0
aI92
aI46
aI52
aI23
aI109
aI26
aI41
aI74
aI102
aI119
aI38
aI13
aI12
aI85
aI90
aI37
aI54
aI51
aI22
aI122
aI84
aI19
aI4
aI71
aI94
aI6
aI34
aI107
aI99
aI45
aI105
aI83
aI39
aI27
aI110
aI88
aI16
aI11
aI33
aI61
aI7
aI42
aI75
aI72
aI30
aI2
aI50
aI98
aI96
aI47
aI18
aI3
aI115
aI17
aI70
aI116
aI125
aI112
aI65
aI87
aI40
aI117
aI77
aI104
aI59
aI82
aI89
aI76
aI79
aI55
aI24
aI44
aI108
aI8
aI43
aI68
aI63
aI81
aI69
aI95
aI78
aI66
aI32
aI21
aI14
aI100
aI60
aI36
aI67
aI15
aI101
aI1
aI121
aI25
aI80
aI49
aI118
aI48
aI29
aI86
aI91
aI9
aI126
aI64
aI31
aI120
aI28
aI73
aI5
aI35
aI113
aI58
aI111
aI127
aI53
aI56
aI62
aI97
aI10
aI106
aI93
aI20
aI124
aI123
aI57
aI103
aI114
aa(lp99
I0
aI93
aI111
aI74
aI118
aI71
aI37
aI31
aI59
aI116
aI98
aI108
aI83
aI67
aI78
aI61
aI92
aI106
aI58
aI102
aI49
aI94
aI54
aI64
aI104
aI125
aI96
aI44
aI39
aI36
aI95
aI7
aI46
aI124
aI53
aI119
aI29
aI6
aI51
aI28
aI89
aI112
aI47
aI43
aI27
aI101
aI32
aI42
aI52
aI20
aI127
aI38
aI48
aI34
aI22
aI120
aI82
aI65
aI18
aI8
aI110
aI15
aI66
aI75
aI23
aI57
aI62
aI13
aI91
aI107
aI122
aI5
aI79
aI87
aI3
aI63
aI88
aI121
aI14
aI72
aI109
aI123
aI56
aI12
aI86
aI99
aI84
aI73
aI76
aI40
aI115
aI68
aI16
aI1
aI21
aI30
aI26
aI114
aI10
aI85
aI126
aI45
aI19
aI113
aI24
aI117
aI17
aI69
aI11
aI80
aI60
aI2
aI41
aI103
aI97
aI90
aI9
aI105
aI4
aI35
aI55
aI77
aI70
aI81
aI33
aI25
aI100
aI50
aa(lp100
I0
aI94
aI47
aI75
aI86
aI57
aI100
aI69
aI43
aI66
aI93
aI49
aI50
aI17
aI99
aI23
aI84
aI13
aI33
aI117
aI111
aI64
aI89
aI15
aI25
aI24
aI73
aI62
aI112
aI110
aI74
aI54
aI42
aI18
aI71
aI92
aI81
aI60
aI123
aI91
aI118
aI106
aI32
aI8
aI109
aI107
aI70
aI2
aI77
aI11
aI12
aI122
aI101
aI82
aI31
aI58
aI56
aI5
aI55
aI80
aI37
aI102
aI27
aI65
aI21
aI63
aI9
aI114
aI98
aI7
aI46
aI34
aI105
aI26
aI30
aI3
aI124
aI48
aI108
aI95
aI59
aI36
aI53
aI120
aI16
aI87
aI4
aI85
aI119
aI22
aI116
aI39
aI35
aI10
aI1
aI79
aI103
aI126
aI68
aI14
aI6
aI52
aI61
aI96
aI115
aI72
aI41
aI45
aI78
aI44
aI29
aI20
aI28
aI127
aI67
aI104
aI90
aI19
aI40
aI88
aI83
aI125
aI51
aI38
aI76
aI121
aI97
aI113
aa(lp101
I0
aI95
aI110
aI53
aI55
aI19
aI91
aI115
aI90
aI80
aI72
aI123
aI108
aI94
aI120
aI112
aI45
aI81
aI40
aI5
aI36
aI74
aI124
aI75
aI54
aI59
aI47
aI48
aI60
aI41
aI56
aI88
aI87
aI73
aI105
aI69
aI20
aI42
aI67
aI102
aI18
aI29
aI37
aI104
aI62
aI16
aI100
aI26
aI27
aI127
aI92
aI78
aI86
aI3
aI24
aI4
aI30
aI57
aI85
aI25
aI28
aI65
aI44
aI71
aI106
aI61
aI101
aI38
aI117
aI35
aI99
aI63
aI10
aI33
aI21
aI23
aI96
aI118
aI51
aI82
aI9
aI17
aI79
aI84
aI83
aI58
aI52
aI32
aI31
aI125
aI8
aI6
aI50
aI114
aI13
aI1
aI76
aI122
aI126
aI70
aI46
aI66
aI39
aI111
aI43
aI34
aI64
aI116
aI12
aI121
aI2
aI103
aI15
aI119
aI93
aI7
aI107
aI68
aI77
aI113
aI14
aI109
aI97
aI11
aI22
aI89
aI98
aI49
aa(lp102
I0
aI96
aI48
aI32
aI24
aI97
aI16
aI122
aI12
aI87
aI113
aI25
aI8
aI124
aI61
aI94
aI6
aI75
aI106
aI108
aI121
aI73
aI77
aI85
aI4
aI11
aI62
aI76
aI95
aI118
aI47
aI52
aI3
aI109
aI100
aI126
aI53
aI82
aI54
aI83
aI125
aI74
aI101
aI120
aI103
aI69
aI107
aI30
aI2
aI105
aI68
aI57
aI31
aI36
aI38
aI112
aI110
aI51
aI59
aI58
aI86
aI14
aI26
aI70
aI64
aI67
aI119
aI65
aI50
aI45
aI63
aI123
aI91
aI21
aI41
aI17
aI27
aI22
aI104
aI111
aI127
aI89
aI37
aI39
aI115
aI23
aI60
aI9
aI114
aI81
aI99
aI72
aI116
aI102
aI15
aI28
aI1
aI5
aI117
aI90
aI34
aI42
aI93
aI44
aI78
aI49
aI18
aI46
aI19
aI33
aI56
aI79
aI55
aI10
aI88
aI84
aI92
aI98
aI29
aI66
aI43
aI20
aI7
aI71
aI13
aI40
aI35
aI80
aa(lp103
I0
aI97
aI113
aI94
aI121
aI75
aI47
aI76
aI125
aI69
aI100
aI83
aI86
aI51
aI38
aI57
aI127
aI23
aI99
aI28
aI50
aI67
aI104
aI17
aI43
aI40
aI88
aI66
aI19
aI49
aI93
aI90
aI126
aI54
aI74
aI103
aI112
aI68
aI14
aI110
aI25
aI61
aI96
aI24
aI52
aI62
aI73
aI6
aI84
aI29
aI20
aI13
aI44
aI117
aI33
aI78
aI72
aI15
aI89
aI115
aI111
aI41
aI45
aI64
aI63
aI65
aI27
aI21
aI37
aI9
aI114
aI102
aI56
aI46
aI34
aI5
aI7
aI80
aI55
aI98
aI77
aI108
aI95
aI11
aI48
aI122
aI12
aI124
aI26
aI58
aI31
aI105
aI101
aI30
aI3
aI82
aI42
aI1
aI79
aI18
aI10
aI92
aI71
aI35
aI22
aI91
aI123
aI119
aI81
aI116
aI39
aI60
aI36
aI2
aI70
aI59
aI109
aI53
aI120
aI107
aI118
aI4
aI85
aI106
aI87
aI8
aI32
aI16
aa(lp104
I0
aI98
aI49
aI95
aI89
aI53
aI110
aI22
aI109
aI115
aI91
aI14
aI55
aI97
aI11
aI19
aI119
aI112
aI120
aI15
aI108
aI93
aI7
aI94
aI90
aI77
aI113
aI80
aI68
aI123
aI72
aI107
aI122
aI88
aI56
aI76
aI60
aI126
aI70
aI41
aI54
aI39
aI111
aI59
aI66
aI48
aI47
aI46
aI45
aI2
aI103
aI81
aI121
aI5
aI40
aI12
aI34
aI75
aI124
aI43
aI36
aI64
aI116
aI74
aI61
aI71
aI44
aI106
aI28
aI101
aI38
aI65
aI30
aI99
aI63
aI57
aI35
aI25
aI85
aI117
aI27
aI51
aI82
aI127
aI118
aI78
aI92
aI96
aI33
aI4
aI24
aI10
aI86
aI21
aI23
aI3
aI87
aI13
aI1
aI73
aI114
aI69
aI105
aI50
aI125
aI102
aI67
aI31
aI20
aI8
aI6
aI42
aI17
aI26
aI100
aI9
aI62
aI79
aI84
aI16
aI18
aI52
aI32
aI29
aI58
aI104
aI37
aI83
aa(lp105
I0
aI99
aI112
aI33
aI56
aI31
aI81
aI32
aI28
aI97
aI78
aI68
aI105
aI46
aI16
aI116
aI14
aI44
aI113
aI127
aI39
aI87
aI34
aI26
aI117
aI110
aI23
aI94
aI8
aI60
aI58
aI5
aI7
aI3
aI22
aI85
aI121
aI104
aI126
aI20
aI82
aI80
aI106
aI91
aI17
aI75
aI13
aI54
aI123
aI118
aI55
aI101
aI74
aI84
aI47
aI50
aI4
aI119
aI30
aI98
aI29
aI103
aI67
aI76
aI66
aI69
aI64
aI62
aI11
aI65
aI107
aI92
aI125
aI88
aI52
aI45
aI63
aI95
aI10
aI120
aI41
aI6
aI40
aI83
aI53
aI35
aI108
aI21
aI73
aI111
aI100
aI43
aI71
aI109
aI27
aI77
aI124
aI9
aI59
aI1
aI90
aI51
aI115
aI61
aI37
aI12
aI42
aI70
aI86
aI93
aI25
aI89
aI2
aI18
aI122
aI102
aI15
aI24
aI49
aI57
aI79
aI36
aI114
aI48
aI96
aI72
aI38
aI19
aa(lp106
I0
aI100
aI50
aI93
aI25
aI74
aI111
aI33
aI77
aI31
aI37
aI55
aI118
aI70
aI81
aI71
aI103
aI61
aI78
aI41
aI83
aI97
aI90
aI67
aI59
aI4
aI35
aI116
aI105
aI108
aI98
aI9
aI114
aI7
aI95
aI26
aI39
aI10
aI85
aI36
aI104
aI19
aI113
aI125
aI45
aI44
aI96
aI126
aI92
aI60
aI2
aI106
aI80
aI102
aI58
aI11
aI117
aI64
aI54
aI24
aI49
aI17
aI69
aI94
aI57
aI75
aI66
aI23
aI110
aI62
aI13
aI15
aI82
aI122
aI5
aI65
aI107
aI8
aI18
aI91
aI52
aI14
aI72
aI20
aI121
aI38
aI127
aI88
aI87
aI120
aI22
aI79
aI48
aI3
aI63
aI34
aI46
aI21
aI30
aI124
aI1
aI119
aI53
aI16
aI40
aI28
aI51
aI76
aI29
aI115
aI68
aI6
aI123
aI42
aI32
aI109
aI27
aI56
aI12
aI101
aI89
aI84
aI73
aI112
aI99
aI43
aI47
aI86
aa(lp107
I0
aI101
aI115
aI35
aI120
aI96
aI80
aI23
aI60
aI13
aI48
aI125
aI40
aI9
aI74
aI32
aI30
aI97
aI71
aI89
aI24
aI107
aI127
aI7
aI20
aI39
aI69
aI122
aI37
aI43
aI16
aI103
aI15
aI92
aI113
aI3
aI98
aI28
aI109
aI25
aI12
aI100
aI116
aI29
aI126
aI87
aI66
aI102
aI10
aI72
aI82
aI94
aI99
aI55
aI61
aI53
aI83
aI124
aI84
aI81
aI8
aI54
aI114
aI88
aI70
aI73
aI46
aI67
aI121
aI26
aI64
aI18
aI49
aI65
aI14
aI85
aI119
aI78
aI77
aI86
aI6
aI59
aI50
aI56
aI58
aI75
aI79
aI45
aI63
aI19
aI106
aI110
aI33
aI123
aI51
aI108
aI5
aI17
aI36
aI52
aI41
aI1
aI47
aI31
aI112
aI118
aI90
aI21
aI95
aI38
aI91
aI117
aI104
aI34
aI62
aI2
aI42
aI111
aI105
aI76
aI4
aI68
aI27
aI93
aI57
aI11
aI44
aI22
aa(lp108
I0
aI102
aI51
aI34
aI88
aI30
aI17
aI77
aI44
aI59
aI15
aI32
aI73
aI91
aI103
aI10
aI22
aI6
aI92
aI74
aI70
aI117
aI16
aI72
aI101
aI66
aI108
aI104
aI114
aI97
aI5
aI86
aI11
aI50
aI3
aI40
aI46
aI38
aI37
aI94
aI35
aI126
aI123
aI62
aI8
aI89
aI36
aI78
aI115
aI87
aI33
aI2
aI54
aI71
aI52
aI119
aI57
aI56
aI113
aI9
aI67
aI95
aI43
aI82
aI68
aI79
aI25
aI60
aI64
aI118
aI20
aI53
aI23
aI12
aI19
aI105
aI83
aI7
aI47
aI65
aI80
aI100
aI63
aI76
aI124
aI127
aI31
aI49
aI4
aI45
aI109
aI13
aI18
aI112
aI39
aI61
aI120
aI29
aI106
aI111
aI81
aI24
aI1
aI14
aI27
aI75
aI98
aI125
aI26
aI90
aI122
aI99
aI93
aI58
aI28
aI48
aI121
aI21
aI69
aI55
aI96
aI116
aI110
aI42
aI84
aI107
aI41
aI85
aa(lp109
I0
aI103
aI114
aI92
aI57
aI52
aI46
aI123
aI93
aI41
aI26
aI106
aI23
aI20
aI124
aI109
aI111
aI90
aI85
aI58
aI13
aI127
aI53
aI12
aI74
aI97
aI10
aI102
aI62
aI38
aI119
aI56
aI118
aI105
aI45
aI49
aI107
aI48
aI29
aI99
aI71
aI9
aI126
aI94
aI91
aI34
aI6
aI86
aI37
aI35
aI113
aI54
aI5
aI22
aI51
aI73
aI31
aI4
aI19
aI64
aI122
aI120
aI28
aI84
aI59
aI77
aI117
aI104
aI87
aI82
aI89
aI40
aI116
aI55
aI24
aI125
aI79
aI65
aI112
aI76
aI98
aI81
aI69
aI96
aI63
aI18
aI47
aI68
aI108
aI70
aI17
aI44
aI3
aI8
aI43
aI115
aI83
aI25
aI80
aI39
aI121
aI110
aI27
aI1
aI67
aI33
aI11
aI36
aI88
aI15
aI101
aI16
aI78
aI50
aI2
aI95
aI72
aI66
aI32
aI30
aI61
aI100
aI60
aI7
aI14
aI75
aI42
aI21
aa(lp110
I0
aI104
aI52
aI89
aI26
aI55
aI109
aI79
aI13
aI68
aI90
aI69
aI119
aI8
aI102
aI108
aI71
aI36
aI34
aI101
aI45
aI25
aI99
aI121
aI122
aI21
aI4
aI60
aI51
aI66
aI54
aI78
aI98
aI58
aI18
aI53
aI17
aI97
aI115
aI62
aI87
aI123
aI77
aI114
aI112
aI20
aI125
aI93
aI61
aI64
aI75
aI28
aI2
aI35
aI30
aI5
aI88
aI86
aI33
aI126
aI27
aI48
aI39
aI118
aI49
aI83
aI29
aI110
aI9
aI11
aI91
aI16
aI73
aI72
aI113
aI50
aI120
aI42
aI31
aI7
aI106
aI116
aI124
aI65
aI103
aI117
aI57
aI40
aI56
aI3
aI10
aI70
aI127
aI47
aI111
aI96
aI95
aI37
aI32
aI22
aI100
aI19
aI14
aI84
aI1
aI107
aI80
aI105
aI15
aI6
aI67
aI94
aI44
aI74
aI43
aI38
aI81
aI85
aI63
aI12
aI76
aI23
aI24
aI41
aI82
aI46
aI59
aI92
aa(lp111
I0
aI105
aI117
aI39
aI123
aI29
aI82
aI121
aI124
aI86
aI79
aI15
aI41
aI71
aI125
aI11
aI62
aI120
aI43
aI21
aI102
aI19
aI70
aI61
aI85
aI54
aI98
aI50
aI127
aI5
aI68
aI32
aI31
aI97
aI60
aI44
aI84
aI119
aI75
aI3
aI51
aI12
aI72
aI18
aI35
aI111
aI95
aI69
aI107
aI52
aI27
aI40
aI49
aI114
aI25
aI59
aI126
aI106
aI67
aI55
aI34
aI23
aI16
aI112
aI78
aI81
aI113
aI58
aI30
aI47
aI22
aI13
aI42
aI115
aI122
aI38
aI100
aI108
aI64
aI10
aI88
aI65
aI6
aI109
aI36
aI24
aI9
aI93
aI80
aI104
aI118
aI103
aI110
aI87
aI99
aI46
aI116
aI33
aI26
aI94
aI76
aI101
aI20
aI91
aI89
aI1
aI57
aI48
aI77
aI83
aI92
aI45
aI63
aI66
aI53
aI73
aI96
aI2
aI90
aI37
aI17
aI7
aI74
aI4
aI8
aI14
aI56
aI28
aa(lp112
I0
aI106
aI53
aI38
aI91
aI99
aI19
aI35
aI108
aI96
aI112
aI82
aI72
aI21
aI80
aI33
aI54
aI31
aI48
aI6
aI56
aI13
aI41
aI114
aI36
aI83
aI75
aI32
aI40
aI79
aI81
aI17
aI27
aI15
aI78
aI7
aI24
aI77
aI3
aI68
aI28
aI22
aI71
aI49
aI85
aI97
aI57
aI109
aI18
aI43
aI104
aI116
aI100
aI2
aI16
aI121
aI20
aI46
aI102
aI111
aI105
aI126
aI73
aI122
aI76
aI87
aI70
aI69
aI39
aI67
aI66
aI42
aI12
aI62
aI103
aI26
aI64
aI37
aI34
aI29
aI14
aI30
aI11
aI25
aI98
aI44
aI89
aI65
aI107
aI86
aI113
aI4
aI93
aI92
aI119
aI127
aI9
aI45
aI84
aI5
aI52
aI124
aI58
aI74
aI50
aI60
aI1
aI88
aI8
aI47
aI125
aI59
aI10
aI90
aI23
aI123
aI51
aI120
aI118
aI94
aI117
aI55
aI63
aI115
aI101
aI110
aI61
aI95
aa(lp113
I0
aI107
aI116
aI88
aI58
aI73
aI44
aI21
aI29
aI114
aI101
aI24
aI22
aI90
aI75
aI70
aI79
aI67
aI57
aI118
aI115
aI7
aI12
aI54
aI11
aI112
aI45
aI46
aI100
aI8
aI35
aI127
aI102
aI84
aI96
aI30
aI93
aI91
aI59
aI121
aI120
aI97
aI66
aI81
aI6
aI26
aI27
aI117
aI68
aI95
aI56
aI64
aI87
aI83
aI23
aI71
aI50
aI18
aI4
aI38
aI80
aI89
aI126
aI124
aI51
aI85
aI42
aI17
aI48
aI103
aI15
aI55
aI111
aI5
aI108
aI14
aI92
aI99
aI125
aI16
aI60
aI43
aI113
aI53
aI33
aI65
aI105
aI52
aI3
aI61
aI13
aI37
aI76
aI36
aI123
aI49
aI34
aI41
aI110
aI77
aI28
aI10
aI32
aI69
aI106
aI86
aI104
aI1
aI74
aI122
aI98
aI72
aI25
aI82
aI9
aI20
aI2
aI47
aI19
aI119
aI40
aI39
aI109
aI94
aI63
aI78
aI62
aI31
aa(lp114
I0
aI108
aI54
aI36
aI27
aI28
aI18
aI20
aI76
aI12
aI14
aI107
aI9
aI50
aI10
aI117
aI38
aI82
aI6
aI32
aI7
aI49
aI116
aI111
aI69
aI26
aI25
aI4
aI5
aI88
aI123
aI115
aI19
aI80
aI41
aI81
aI3
aI57
aI16
aI73
aI66
aI34
aI89
aI119
aI58
aI125
aI118
aI61
aI99
aI21
aI13
aI79
aI77
aI97
aI2
aI126
aI67
aI37
aI44
aI92
aI124
aI47
aI120
aI110
aI72
aI91
aI40
aI56
aI85
aI24
aI105
aI100
aI64
aI39
aI93
aI98
aI8
aI52
aI101
aI51
aI33
aI35
aI17
aI114
aI109
aI68
aI122
aI121
aI29
aI42
aI127
aI65
aI59
aI74
aI95
aI94
aI112
aI53
aI75
aI48
aI71
aI78
aI102
aI104
aI103
aI70
aI113
aI11
aI1
aI84
aI63
aI23
aI96
aI106
aI83
aI31
aI22
aI15
aI46
aI43
aI62
aI87
aI86
aI30
aI60
aI45
aI55
aI90
aa(lp115
I0
aI109
aI119
aI90
aI122
aI54
aI45
aI34
aI61
aI30
aI27
aI33
aI87
aI125
aI17
aI18
aI95
aI14
aI15
aI80
aI76
aI59
aI81
aI43
aI106
aI57
aI127
aI10
aI73
aI31
aI9
aI29
aI110
aI11
aI7
aI72
aI70
aI47
aI40
aI116
aI38
aI85
aI92
aI23
aI105
aI6
aI84
aI37
aI53
aI97
aI93
aI123
aI126
aI48
aI5
aI64
aI101
aI25
aI78
aI21
aI69
aI8
aI79
aI104
aI55
aI89
aI68
aI108
aI66
aI60
aI36
aI121
aI35
aI28
aI86
aI118
aI20
aI114
aI58
aI62
aI19
aI22
aI107
aI94
aI46
aI41
aI74
aI12
aI117
aI65
aI3
aI96
aI42
aI50
aI83
aI16
aI91
aI49
aI113
aI120
aI111
aI56
aI124
aI103
aI63
aI44
aI24
aI82
aI67
aI1
aI32
aI100
aI115
aI98
aI77
aI112
aI39
aI88
aI75
aI2
aI99
aI71
aI4
aI51
aI102
aI13
aI52
aI26
aa(lp116
I0
aI110
aI55
aI91
aI90
aI72
aI108
aI120
aI45
aI40
aI36
aI124
aI54
aI47
aI60
aI56
aI87
aI105
aI20
aI67
aI18
aI37
aI62
aI100
aI27
aI92
aI86
aI24
aI30
aI85
aI28
aI44
aI106
aI101
aI117
aI99
aI10
aI21
aI96
aI51
aI9
aI79
aI83
aI52
aI31
aI8
aI50
aI13
aI76
aI126
aI46
aI39
aI43
aI64
aI12
aI2
aI15
aI93
aI107
aI77
aI14
aI97
aI22
aI98
aI53
aI95
aI115
aI19
aI123
aI80
aI112
aI94
aI5
aI81
aI75
aI74
aI48
aI59
aI88
aI41
aI69
aI73
aI102
aI42
aI104
aI29
aI26
aI16
aI78
aI127
aI4
aI3
aI25
aI57
aI71
aI65
aI38
aI61
aI63
aI35
aI23
aI33
aI82
aI118
aI84
aI17
aI32
aI58
aI6
aI125
aI1
aI114
aI70
aI122
aI111
aI66
aI116
aI34
aI103
aI121
aI7
aI119
aI113
aI68
aI11
aI109
aI49
aI89
aa(lp117
I0
aI111
aI118
aI37
aI59
aI98
aI83
aI78
aI92
aI58
aI49
aI54
aI104
aI96
aI39
aI95
aI46
aI53
aI29
aI51
aI89
aI47
aI27
aI32
aI52
aI127
aI48
aI22
aI82
aI18
aI110
aI66
aI23
aI62
aI91
aI122
aI79
aI3
aI88
aI14
aI109
aI56
aI86
aI84
aI76
aI115
aI16
aI21
aI26
aI10
aI126
aI19
aI24
aI17
aI11
aI60
aI41
aI97
aI9
aI4
aI55
aI70
aI33
aI100
aI74
aI93
aI31
aI71
aI108
aI116
aI61
aI67
aI102
aI106
aI64
aI94
aI44
aI125
aI7
aI36
aI119
aI124
aI28
aI6
aI43
aI112
aI42
aI101
aI38
aI20
aI120
aI34
aI8
aI65
aI75
aI15
aI13
aI57
aI5
aI107
aI63
aI87
aI72
aI121
aI12
aI123
aI73
aI99
aI68
aI40
aI30
aI1
aI85
aI114
aI113
aI45
aI69
aI117
aI2
aI80
aI90
aI103
aI35
aI105
aI81
aI77
aI50
aI25
aa(lp118
I0
aI112
aI56
aI81
aI28
aI78
aI105
aI16
aI14
aI113
aI39
aI34
aI117
aI23
aI8
aI58
aI7
aI22
aI121
aI126
aI82
aI106
aI17
aI13
aI123
aI55
aI74
aI47
aI4
aI30
aI29
aI67
aI66
aI64
aI11
aI107
aI125
aI52
aI63
aI10
aI41
aI40
aI53
aI108
aI73
aI100
aI71
aI27
aI124
aI59
aI90
aI115
aI37
aI42
aI86
aI25
aI2
aI122
aI15
aI49
aI79
aI114
aI96
aI38
aI33
aI99
aI32
aI31
aI68
aI97
aI116
aI46
aI127
aI44
aI26
aI87
aI94
aI110
aI5
aI60
aI85
aI3
aI20
aI104
aI91
aI80
aI54
aI75
aI101
aI118
aI50
aI84
aI98
aI119
aI76
aI103
aI62
aI69
aI92
aI65
aI45
aI88
aI120
aI95
aI83
aI6
aI21
aI35
aI43
aI111
aI77
aI109
aI1
aI9
aI61
aI51
aI70
aI12
aI89
aI93
aI102
aI18
aI57
aI24
aI48
aI36
aI19
aI72
aa(lp119
I0
aI113
aI121
aI47
aI125
aI100
aI86
aI38
aI127
aI99
aI50
aI104
aI43
aI88
aI19
aI93
aI126
aI74
aI112
aI14
aI25
aI96
aI52
aI73
aI84
aI20
aI44
aI33
aI72
aI89
aI111
aI45
aI63
aI27
aI37
aI114
aI56
aI34
aI7
aI55
aI77
aI95
aI48
aI12
aI26
aI31
aI101
aI3
aI42
aI79
aI10
aI71
aI22
aI123
aI81
aI39
aI36
aI70
aI109
aI120
aI118
aI85
aI87
aI32
aI94
aI97
aI76
aI75
aI83
aI69
aI57
aI51
aI28
aI23
aI17
aI67
aI66
aI40
aI90
aI49
aI103
aI54
aI110
aI68
aI24
aI61
aI6
aI62
aI13
aI29
aI78
aI117
aI115
aI15
aI64
aI41
aI21
aI65
aI102
aI9
aI5
aI46
aI98
aI80
aI11
aI108
aI124
aI122
aI105
aI58
aI82
aI30
aI18
aI1
aI35
aI92
aI119
aI91
aI60
aI116
aI59
aI2
aI107
aI53
aI106
aI4
aI16
aI8
aa(lp120
I0
aI114
aI57
aI46
aI93
aI26
aI23
aI124
aI111
aI85
aI13
aI53
aI74
aI10
aI62
aI119
aI118
aI45
aI107
aI29
aI71
aI126
aI91
aI6
aI37
aI113
aI5
aI51
aI31
aI19
aI122
aI28
aI59
aI117
aI87
aI89
aI116
aI24
aI79
aI112
aI98
aI69
aI63
aI47
aI108
aI17
aI3
aI43
aI83
aI80
aI121
aI27
aI67
aI11
aI88
aI101
aI78
aI2
aI72
aI32
aI61
aI60
aI14
aI42
aI92
aI103
aI123
aI52
aI106
aI41
aI109
aI20
aI58
aI90
aI12
aI127
aI102
aI97
aI56
aI38
aI49
aI105
aI99
aI48
aI94
aI9
aI86
aI34
aI54
aI35
aI73
aI22
aI64
aI4
aI84
aI120
aI104
aI77
aI40
aI82
aI125
aI55
aI76
aI65
aI96
aI81
aI68
aI18
aI44
aI70
aI115
aI8
aI39
aI25
aI1
aI110
aI36
aI33
aI16
aI15
aI95
aI50
aI30
aI66
aI7
aI100
aI21
aI75
aa(lp121
I0
aI115
aI120
aI80
aI60
aI48
aI40
aI74
aI30
aI71
aI24
aI127
aI20
aI69
aI37
aI16
aI15
aI113
aI98
aI109
aI12
aI116
aI126
aI66
aI10
aI82
aI99
aI61
aI83
aI84
aI8
aI114
aI70
aI46
aI121
aI64
aI49
aI14
aI119
aI77
aI6
aI50
aI58
aI79
aI63
aI106
aI33
aI51
aI5
aI36
aI41
aI47
aI112
aI90
aI95
aI91
aI104
aI62
aI42
aI105
aI4
aI27
aI57
aI44
aI35
aI101
aI23
aI96
aI125
aI13
aI32
aI9
aI89
aI97
aI7
aI107
aI122
aI39
aI103
aI43
aI3
aI92
aI25
aI28
aI29
aI100
aI102
aI87
aI94
aI72
aI53
aI55
aI81
aI124
aI88
aI54
aI67
aI73
aI18
aI26
aI85
aI65
aI86
aI78
aI56
aI59
aI45
aI75
aI110
aI19
aI108
aI123
aI52
aI17
aI31
aI1
aI21
aI118
aI117
aI38
aI2
aI34
aI76
aI111
aI93
aI68
aI22
aI11
aa(lp122
I0
aI116
aI58
aI44
aI29
aI101
aI22
aI75
aI79
aI57
aI115
aI12
aI11
aI45
aI100
aI35
aI102
aI96
aI93
aI59
aI120
aI66
aI6
aI27
aI68
aI56
aI87
aI23
aI50
aI4
aI80
aI126
aI51
aI42
aI48
aI15
aI111
aI108
aI92
aI125
aI60
aI113
aI33
aI105
aI3
aI13
aI76
aI123
aI34
aI110
aI28
aI32
aI106
aI104
aI74
aI98
aI25
aI9
aI2
aI19
aI40
aI109
aI63
aI62
aI88
aI107
aI21
aI73
aI24
aI114
aI70
aI90
aI118
aI67
aI54
aI7
aI46
aI112
aI127
aI8
aI30
aI84
aI121
aI91
aI81
aI97
aI117
aI26
aI64
aI95
aI71
aI83
aI38
aI18
aI124
aI89
aI17
aI85
aI55
aI103
aI14
aI5
aI16
aI99
aI53
aI43
aI52
aI65
aI37
aI61
aI49
aI36
aI77
aI41
aI69
aI10
aI1
aI86
aI72
aI122
aI20
aI82
aI119
aI47
aI94
aI39
aI31
aI78
aa(lp123
I0
aI117
aI123
aI82
aI124
aI79
aI41
aI125
aI62
aI43
aI102
aI70
aI85
aI98
aI127
aI68
aI31
aI60
aI84
aI75
aI51
aI72
aI35
aI95
aI107
aI27
aI49
aI25
aI126
aI67
aI34
aI16
aI78
aI113
aI30
aI22
aI42
aI122
aI100
aI64
aI88
aI6
aI36
aI9
aI80
aI118
aI110
aI99
aI116
aI26
aI76
aI20
aI89
aI57
aI77
aI92
aI63
aI53
aI96
aI90
aI17
aI74
aI8
aI56
aI39
aI105
aI121
aI29
aI15
aI86
aI11
aI71
aI21
aI120
aI61
aI19
aI50
aI54
aI32
aI5
aI44
aI97
aI3
aI119
aI18
aI12
aI69
aI111
aI40
aI52
aI59
aI114
aI55
aI106
aI112
aI23
aI58
aI81
aI13
aI47
aI38
aI115
aI10
aI108
aI109
aI65
aI93
aI24
aI103
aI104
aI46
aI87
aI94
aI33
aI91
aI101
aI48
aI1
aI45
aI83
aI73
aI66
aI37
aI2
aI4
aI7
aI28
aI14
aa(lp124
I0
aI118
aI59
aI83
aI92
aI49
aI104
aI39
aI46
aI29
aI89
aI27
aI52
aI48
aI82
aI110
aI23
aI91
aI79
aI88
aI109
aI86
aI76
aI16
aI26
aI126
aI24
aI11
aI41
aI9
aI55
aI33
aI74
aI31
aI108
aI61
aI102
aI64
aI44
aI7
aI119
aI28
aI43
aI42
aI38
aI120
aI8
aI75
aI13
aI5
aI63
aI72
aI12
aI73
aI68
aI30
aI85
aI113
aI69
aI2
aI90
aI35
aI81
aI50
aI37
aI111
aI78
aI98
aI54
aI58
aI95
aI96
aI51
aI53
aI32
aI47
aI22
aI127
aI66
aI18
aI122
aI62
aI14
aI3
aI84
aI56
aI21
aI115
aI19
aI10
aI60
aI17
aI4
aI97
aI100
aI70
aI71
aI93
aI67
aI116
aI94
aI106
aI36
aI125
aI6
aI124
aI101
aI112
aI34
aI20
aI15
aI65
aI107
aI57
aI121
aI87
aI99
aI123
aI1
aI40
aI45
aI114
aI80
aI117
aI105
aI103
aI25
aI77
aa(lp125
I0
aI119
aI122
aI45
aI61
aI27
aI87
aI17
aI95
aI15
aI76
aI81
aI106
aI127
aI73
aI9
aI110
aI7
aI70
aI40
aI38
aI92
aI105
aI84
aI53
aI93
aI126
aI5
aI101
aI78
aI69
aI79
aI55
aI68
aI66
aI36
aI35
aI86
aI20
aI58
aI19
aI107
aI46
aI74
aI117
aI3
aI42
aI83
aI91
aI113
aI111
aI124
aI63
aI24
aI67
aI32
aI115
aI77
aI39
aI75
aI99
aI4
aI102
aI52
aI90
aI109
aI34
aI54
aI33
aI30
aI18
aI125
aI80
aI14
aI43
aI59
aI10
aI57
aI29
aI31
aI72
aI11
aI116
aI47
aI23
aI85
aI37
aI6
aI123
aI97
aI64
aI48
aI21
aI25
aI104
aI8
aI108
aI89
aI121
aI60
aI118
aI28
aI62
aI114
aI94
aI22
aI12
aI41
aI96
aI65
aI16
aI50
aI120
aI49
aI103
aI56
aI82
aI44
aI100
aI1
aI112
aI98
aI2
aI88
aI51
aI71
aI26
aI13
aa(lp126
I0
aI120
aI60
aI40
aI30
aI24
aI20
aI37
aI15
aI98
aI12
aI126
aI10
aI99
aI83
aI8
aI70
aI121
aI49
aI119
aI6
aI58
aI63
aI33
aI5
aI41
aI112
aI95
aI104
aI42
aI4
aI57
aI35
aI23
aI125
aI32
aI89
aI7
aI122
aI103
aI3
aI25
aI29
aI102
aI94
aI53
aI81
aI88
aI67
aI18
aI85
aI86
aI56
aI45
aI110
aI108
aI52
aI31
aI21
aI117
aI2
aI76
aI93
aI22
aI80
aI115
aI74
aI48
aI127
aI71
aI16
aI69
aI109
aI113
aI66
aI116
aI61
aI82
aI114
aI84
aI64
aI46
aI77
aI14
aI79
aI50
aI51
aI106
aI47
aI36
aI91
aI90
aI105
aI62
aI44
aI27
aI96
aI101
aI9
aI13
aI107
aI97
aI43
aI39
aI28
aI92
aI87
aI100
aI55
aI72
aI54
aI124
aI26
aI73
aI78
aI65
aI75
aI59
aI123
aI19
aI1
aI17
aI38
aI118
aI111
aI34
aI11
aI68
aa(lp127
I0
aI121
aI125
aI86
aI127
aI50
aI43
aI19
aI126
aI112
aI25
aI52
aI84
aI44
aI72
aI111
aI63
aI37
aI56
aI7
aI77
aI48
aI26
aI101
aI42
aI10
aI22
aI81
aI36
aI109
aI118
aI87
aI94
aI76
aI83
aI57
aI28
aI17
aI66
aI90
aI103
aI110
aI24
aI6
aI13
aI78
aI115
aI64
aI21
aI102
aI5
aI98
aI11
aI124
aI105
aI82
aI18
aI35
aI119
aI60
aI59
aI107
aI106
aI16
aI47
aI113
aI38
aI100
aI104
aI99
aI93
aI88
aI14
aI74
aI73
aI96
aI33
aI20
aI45
aI89
aI114
aI27
aI55
aI34
aI12
aI95
aI3
aI31
aI71
aI79
aI39
aI123
aI120
aI70
aI32
aI85
aI75
aI97
aI51
aI69
aI67
aI23
aI49
aI40
aI68
aI54
aI62
aI61
aI117
aI29
aI41
aI15
aI9
aI65
aI80
aI46
aI122
aI108
aI30
aI58
aI92
aI1
aI116
aI91
aI53
aI2
aI8
aI4
aa(lp128
I0
aI122
aI61
aI87
aI95
aI76
aI106
aI73
aI110
aI70
aI38
aI105
aI53
aI126
aI101
aI69
aI55
aI66
aI35
aI20
aI19
aI46
aI117
aI42
aI91
aI111
aI63
aI67
aI115
aI39
aI99
aI102
aI90
aI34
aI33
aI18
aI80
aI43
aI10
aI29
aI72
aI116
aI23
aI37
aI123
aI64
aI21
aI104
aI108
aI121
aI118
aI62
aI94
aI12
aI96
aI16
aI120
aI103
aI82
aI100
aI112
aI2
aI51
aI26
aI45
aI119
aI17
aI27
aI81
aI15
aI9
aI127
aI40
aI7
aI84
aI92
aI5
aI93
aI79
aI78
aI36
aI68
aI58
aI86
aI74
aI107
aI83
aI3
aI124
aI113
aI32
aI24
aI75
aI77
aI52
aI4
aI54
aI109
aI125
aI30
aI59
aI14
aI31
aI57
aI47
aI11
aI6
aI85
aI48
aI97
aI8
aI25
aI60
aI89
aI114
aI28
aI41
aI22
aI50
aI65
aI56
aI49
aI1
aI44
aI88
aI98
aI13
aI71
aa(lp129
I0
aI123
aI124
aI41
aI62
aI102
aI85
aI127
aI31
aI84
aI51
aI35
aI107
aI49
aI126
aI34
aI78
aI30
aI42
aI100
aI88
aI36
aI80
aI110
aI116
aI76
aI89
aI77
aI63
aI96
aI17
aI8
aI39
aI121
aI15
aI11
aI21
aI61
aI50
aI32
aI44
aI3
aI18
aI69
aI40
aI59
aI55
aI112
aI58
aI13
aI38
aI10
aI109
aI93
aI103
aI46
aI94
aI91
aI48
aI45
aI73
aI37
aI4
aI28
aI82
aI117
aI125
aI79
aI70
aI43
aI68
aI98
aI75
aI60
aI95
aI72
aI25
aI27
aI16
aI67
aI22
aI113
aI64
aI122
aI9
aI6
aI99
aI118
aI20
aI26
aI92
aI57
aI90
aI53
aI56
aI74
aI29
aI105
aI71
aI86
aI19
aI120
aI5
aI54
aI119
aI97
aI111
aI12
aI114
aI52
aI23
aI106
aI47
aI81
aI108
aI115
aI24
aI65
aI87
aI104
aI101
aI33
aI83
aI1
aI2
aI66
aI14
aI7
aa(lp130
I0
aI124
aI62
aI85
aI31
aI51
aI107
aI126
aI78
aI42
aI88
aI80
aI116
aI89
aI63
aI17
aI39
aI15
aI21
aI50
aI44
aI18
aI40
aI55
aI58
aI38
aI109
aI103
aI94
aI48
aI73
aI4
aI82
aI125
aI70
aI68
aI75
aI95
aI25
aI16
aI22
aI64
aI9
aI99
aI20
aI92
aI90
aI56
aI29
aI71
aI19
aI5
aI119
aI111
aI114
aI23
aI47
aI108
aI24
aI87
aI101
aI83
aI2
aI14
aI41
aI123
aI127
aI102
aI35
aI84
aI34
aI49
aI100
aI30
aI110
aI36
aI77
aI76
aI8
aI96
aI11
aI121
aI32
aI61
aI69
aI3
aI112
aI59
aI10
aI13
aI46
aI93
aI45
aI91
aI28
aI37
aI79
aI117
aI98
aI43
aI72
aI60
aI67
aI27
aI122
aI113
aI118
aI6
aI57
aI26
aI74
aI53
aI86
aI105
aI54
aI120
aI12
aI97
aI106
aI52
aI115
aI81
aI104
aI65
aI1
aI33
aI7
aI66
aa(lp131
I0
aI125
aI127
aI43
aI126
aI25
aI84
aI72
aI63
aI56
aI77
aI26
aI42
aI22
aI36
aI118
aI94
aI83
aI28
aI66
aI103
aI24
aI13
aI115
aI21
aI5
aI11
aI105
aI18
aI119
aI59
aI106
aI47
aI38
aI104
aI93
aI14
aI73
aI33
aI45
aI114
aI55
aI12
aI3
aI71
aI39
aI120
aI32
aI75
aI51
aI67
aI49
aI68
aI62
aI117
aI41
aI9
aI80
aI122
aI30
aI92
aI116
aI53
aI8
aI86
aI121
aI19
aI50
aI52
aI112
aI111
aI44
aI7
aI37
aI101
aI48
aI81
aI10
aI87
aI109
aI57
aI76
aI90
aI17
aI6
aI110
aI64
aI78
aI98
aI102
aI82
aI124
aI60
aI35
aI16
aI107
aI100
aI113
aI88
aI99
aI96
aI74
aI89
aI20
aI34
aI27
aI31
aI95
aI123
aI79
aI85
aI70
aI69
aI97
aI40
aI23
aI61
aI54
aI15
aI29
aI46
aI65
aI58
aI108
aI91
aI1
aI4
aI2
aa(lp132
I0
aI126
aI63
aI42
aI94
aI103
aI21
aI18
aI47
aI14
aI114
aI71
aI75
aI68
aI9
aI92
aI86
aI52
aI7
aI81
aI57
aI6
aI98
aI60
aI100
aI96
aI34
aI123
aI69
aI61
aI46
aI91
aI43
aI72
aI26
aI118
aI66
aI115
aI105
aI106
aI93
aI45
aI3
aI32
aI49
aI41
aI30
aI8
aI50
aI44
aI48
aI109
aI17
aI78
aI124
aI107
aI99
aI20
aI95
aI70
aI23
aI29
aI108
aI2
aI84
aI127
aI36
aI77
aI13
aI28
aI59
aI11
aI33
aI104
aI120
aI12
aI117
aI67
aI53
aI122
aI111
aI19
aI87
aI101
aI64
aI90
aI16
aI82
aI89
aI88
aI85
aI31
aI15
aI40
aI4
aI58
aI25
aI125
aI22
aI56
aI24
aI83
aI119
aI5
aI73
aI38
aI39
aI55
aI62
aI51
aI116
aI80
aI112
aI121
aI10
aI37
aI110
aI76
aI35
aI102
aI74
aI113
aI79
aI27
aI54
aI97
aI1
aI65
aa(lp133
I0
aI127
aI126
aI84
aI63
aI77
aI42
aI36
aI94
aI28
aI103
aI13
aI21
aI11
aI18
aI59
aI47
aI104
aI14
aI33
aI114
aI12
aI71
aI120
aI75
aI67
aI68
aI117
aI9
aI122
aI92
aI53
aI86
aI19
aI52
aI111
aI7
aI101
aI81
aI87
aI57
aI90
aI6
aI64
aI98
aI82
aI60
aI16
aI100
aI88
aI96
aI89
aI34
aI31
aI123
aI85
aI69
aI40
aI61
aI15
aI46
aI58
aI91
aI4
aI43
aI125
aI72
aI25
aI26
aI56
aI118
aI22
aI66
aI83
aI115
aI24
aI105
aI5
aI106
aI119
aI93
aI38
aI45
aI73
aI3
aI55
aI32
aI39
aI49
aI51
aI41
aI62
aI30
aI80
aI8
aI116
aI50
aI121
aI44
aI112
aI48
aI37
aI109
aI10
aI17
aI76
aI78
aI110
aI124
aI102
aI107
aI35
aI99
aI113
aI20
aI74
aI95
aI27
aI70
aI79
aI23
aI97
aI29
aI54
aI108
aI65
aI2
aI1
aasS'mulLUT'
p134
(lp135
(lp136
I0
aI0
aI0
aI0
aI0
aI0
aI0
aI0
aI0
aI0
aI0
aI0
aI0
aI0
aI0
aI0
aI0
aI0
aI0
aI0
aI0
aI0
aI0
aI0
aI0
aI0
aI0
aI0
aI0
aI0
aI0
aI0
aI0
aI0
aI0
aI0
aI0
aI0
aI0
aI0
aI0
aI0
aI0
aI0
aI0
aI0
aI0
aI0
aI0
aI0
aI0
aI0
aI0
aI0
aI0
aI0
aI0
aI0
aI0
aI0
aI0
aI0
aI0
aI0
aI0
aI0
aI0
aI0
aI0
aI0
aI0
aI0
aI0
aI0
aI0
aI0
aI0
aI0
aI0
aI0
aI0
aI0
aI0
aI0
aI0
aI0
aI0
aI0
aI0
aI0
aI0
aI0
aI0
aI0
aI0
aI0
aI0
aI0
aI0
aI0
aI0
aI0
aI0
aI0
aI0
aI0
aI0
aI0
aI0
aI0
aI0
aI0
aI0
aI0
aI0
aI0
aI0
aI0
aI0
aI0
aI0
aI0
aI0
aI0
aI0
aI0
aI0
aI0
aa(lp137
I0
aI1
aI2
aI3
aI4
aI5
aI6
aI7
aI8
aI9
aI10
aI11
aI12
aI13
aI14
aI15
aI16
aI17
aI18
aI19
aI20
aI21
aI22
aI23
aI24
aI25
aI26
aI27
aI28
aI29
aI30
aI31
aI32
aI33
aI34
aI35
aI36
aI37
aI38
aI39
aI40
aI41
aI42
aI43
aI44
aI45
aI46
aI47
aI48
aI49
aI50
aI51
aI52
aI53
aI54
aI55
aI56
aI57
aI58
aI59
aI60
aI61
aI62
aI63
aI64
aI65
aI66
aI67
aI68
aI69
aI70
aI71
aI72
aI73
aI74
aI75
aI76
aI77
aI78
aI79
aI80
aI81
aI82
aI83
aI84
aI85
aI86
aI87
aI88
aI89
aI90
aI91
aI92
aI93
aI94
aI95
aI96
aI97
aI98
aI99
aI100
aI101
aI102
aI103
aI104
aI105
aI106
aI107
aI108
aI109
aI110
aI111
aI112
aI113
aI114
aI115
aI116
aI117
aI118
aI119
aI120
aI121
aI122
aI123
aI124
aI125
aI126
aI127
aa(lp138
I0
aI2
aI4
aI6
aI8
aI10
aI12
aI14
aI16
aI18
aI20
aI22
aI24
aI26
aI28
aI30
aI32
aI34
aI36
aI38
aI40
aI42
aI44
aI46
aI48
aI50
aI52
aI54
aI56
aI58
aI60
aI62
aI64
aI66
aI68
aI70
aI72
aI74
aI76
aI78
aI80
aI82
aI84
aI86
aI88
aI90
aI92
aI94
aI96
aI98
aI100
aI102
aI104
aI106
aI108
aI110
aI112
aI114
aI116
aI118
aI120
aI122
aI124
aI126
aI3
aI1
aI7
aI5
aI11
aI9
aI15
aI13
aI19
aI17
aI23
aI21
aI27
aI25
aI31
aI29
aI35
aI33
aI39
aI37
aI43
aI41
aI47
aI45
aI51
aI49
aI55
aI53
aI59
aI57
aI63
aI61
aI67
aI65
aI71
aI69
aI75
aI73
aI79
aI77
aI83
aI81
aI87
aI85
aI91
aI89
aI95
aI93
aI99
aI97
aI103
aI101
aI107
aI105
aI111
aI109
aI115
aI113
aI119
aI117
aI123
aI121
aI127
aI125
aa(lp139
I0
aI3
aI6
aI5
aI12
aI15
aI10
aI9
aI24
aI27
aI30
aI29
aI20
aI23
aI18
aI17
aI48
aI51
aI54
aI53
aI60
aI63
aI58
aI57
aI40
aI43
aI46
aI45
aI36
aI39
aI34
aI33
aI96
aI99
aI102
aI101
aI108
aI111
aI106
aI105
aI120
aI123
aI126
aI125
aI116
aI119
aI114
aI113
aI80
aI83
aI86
aI85
aI92
aI95
aI90
aI89
aI72
aI75
aI78
aI77
aI68
aI71
aI66
aI65
aI67
aI64
aI69
aI70
aI79
aI76
aI73
aI74
aI91
aI88
aI93
aI94
aI87
aI84
aI81
aI82
aI115
aI112
aI117
aI118
aI127
aI124
aI121
aI122
aI107
aI104
aI109
aI110
aI103
aI100
aI97
aI98
aI35
aI32
aI37
aI38
aI47
aI44
aI41
aI42
aI59
aI56
aI61
aI62
aI55
aI52
aI49
aI50
aI19
aI16
aI21
aI22
aI31
aI28
aI25
aI26
aI11
aI8
aI13
aI14
aI7
aI4
aI1
aI2
aa(lp140
I0
aI4
aI8
aI12
aI16
aI20
aI24
aI28
aI32
aI36
aI40
aI44
aI48
aI52
aI56
aI60
aI64
aI68
aI72
aI76
aI80
aI84
aI88
aI92
aI96
aI100
aI104
aI108
aI112
aI116
aI120
aI124
aI3
aI7
aI11
aI15
aI19
aI23
aI27
aI31
aI35
aI39
aI43
aI47
aI51
aI55
aI59
aI63
aI67
aI71
aI75
aI79
aI83
aI87
aI91
aI95
aI99
aI103
aI107
aI111
aI115
aI119
aI123
aI127
aI6
aI2
aI14
aI10
aI22
aI18
aI30
aI26
aI38
aI34
aI46
aI42
aI54
aI50
aI62
aI58
aI70
aI66
aI78
aI74
aI86
aI82
aI94
aI90
aI102
aI98
aI110
aI106
aI118
aI114
aI126
aI122
aI5
aI1
aI13
aI9
aI21
aI17
aI29
aI25
aI37
aI33
aI45
aI41
aI53
aI49
aI61
aI57
aI69
aI65
aI77
aI73
aI85
aI81
aI93
aI89
aI101
aI97
aI109
aI105
aI117
aI113
aI125
aI121
aa(lp141
I0
aI5
aI10
aI15
aI20
aI17
aI30
aI27
aI40
aI45
aI34
aI39
aI60
aI57
aI54
aI51
aI80
aI85
aI90
aI95
aI68
aI65
aI78
aI75
aI120
aI125
aI114
aI119
aI108
aI105
aI102
aI99
aI35
aI38
aI41
aI44
aI55
aI50
aI61
aI56
aI11
aI14
aI1
aI4
aI31
aI26
aI21
aI16
aI115
aI118
aI121
aI124
aI103
aI98
aI109
aI104
aI91
aI94
aI81
aI84
aI79
aI74
aI69
aI64
aI70
aI67
aI76
aI73
aI82
aI87
aI88
aI93
aI110
aI107
aI100
aI97
aI122
aI127
aI112
aI117
aI22
aI19
aI28
aI25
aI2
aI7
aI8
aI13
aI62
aI59
aI52
aI49
aI42
aI47
aI32
aI37
aI101
aI96
aI111
aI106
aI113
aI116
aI123
aI126
aI77
aI72
aI71
aI66
aI89
aI92
aI83
aI86
aI53
aI48
aI63
aI58
aI33
aI36
aI43
aI46
aI29
aI24
aI23
aI18
aI9
aI12
aI3
aI6
aa(lp142
I0
aI6
aI12
aI10
aI24
aI30
aI20
aI18
aI48
aI54
aI60
aI58
aI40
aI46
aI36
aI34
aI96
aI102
aI108
aI106
aI120
aI126
aI116
aI114
aI80
aI86
aI92
aI90
aI72
aI78
aI68
aI66
aI67
aI69
aI79
aI73
aI91
aI93
aI87
aI81
aI115
aI117
aI127
aI121
aI107
aI109
aI103
aI97
aI35
aI37
aI47
aI41
aI59
aI61
aI55
aI49
aI19
aI21
aI31
aI25
aI11
aI13
aI7
aI1
aI5
aI3
aI9
aI15
aI29
aI27
aI17
aI23
aI53
aI51
aI57
aI63
aI45
aI43
aI33
aI39
aI101
aI99
aI105
aI111
aI125
aI123
aI113
aI119
aI85
aI83
aI89
aI95
aI77
aI75
aI65
aI71
aI70
aI64
aI74
aI76
aI94
aI88
aI82
aI84
aI118
aI112
aI122
aI124
aI110
aI104
aI98
aI100
aI38
aI32
aI42
aI44
aI62
aI56
aI50
aI52
aI22
aI16
aI26
aI28
aI14
aI8
aI2
aI4
aa(lp143
I0
aI7
aI14
aI9
aI28
aI27
aI18
aI21
aI56
aI63
aI54
aI49
aI36
aI35
aI42
aI45
aI112
aI119
aI126
aI121
aI108
aI107
aI98
aI101
aI72
aI79
aI70
aI65
aI84
aI83
aI90
aI93
aI99
aI100
aI109
aI106
aI127
aI120
aI113
aI118
aI91
aI92
aI85
aI82
aI71
aI64
aI73
aI78
aI19
aI20
aI29
aI26
aI15
aI8
aI1
aI6
aI43
aI44
aI37
aI34
aI55
aI48
aI57
aI62
aI69
aI66
aI75
aI76
aI89
aI94
aI87
aI80
aI125
aI122
aI115
aI116
aI97
aI102
aI111
aI104
aI53
aI50
aI59
aI60
aI41
aI46
aI39
aI32
aI13
aI10
aI3
aI4
aI17
aI22
aI31
aI24
aI38
aI33
aI40
aI47
aI58
aI61
aI52
aI51
aI30
aI25
aI16
aI23
aI2
aI5
aI12
aI11
aI86
aI81
aI88
aI95
aI74
aI77
aI68
aI67
aI110
aI105
aI96
aI103
aI114
aI117
aI124
aI123
aa(lp144
I0
aI8
aI16
aI24
aI32
aI40
aI48
aI56
aI64
aI72
aI80
aI88
aI96
aI104
aI112
aI120
aI3
aI11
aI19
aI27
aI35
aI43
aI51
aI59
aI67
aI75
aI83
aI91
aI99
aI107
aI115
aI123
aI6
aI14
aI22
aI30
aI38
aI46
aI54
aI62
aI70
aI78
aI86
aI94
aI102
aI110
aI118
aI126
aI5
aI13
aI21
aI29
aI37
aI45
aI53
aI61
aI69
aI77
aI85
aI93
aI101
aI109
aI117
aI125
aI12
aI4
aI28
aI20
aI44
aI36
aI60
aI52
aI76
aI68
aI92
aI84
aI108
aI100
aI124
aI116
aI15
aI7
aI31
aI23
aI47
aI39
aI63
aI55
aI79
aI71
aI95
aI87
aI111
aI103
aI127
aI119
aI10
aI2
aI26
aI18
aI42
aI34
aI58
aI50
aI74
aI66
aI90
aI82
aI106
aI98
aI122
aI114
aI9
aI1
aI25
aI17
aI41
aI33
aI57
aI49
aI73
aI65
aI89
aI81
aI105
aI97
aI121
aI113
aa(lp145
I0
aI9
aI18
aI27
aI36
aI45
aI54
aI63
aI72
aI65
aI90
aI83
aI108
aI101
aI126
aI119
aI19
aI26
aI1
aI8
aI55
aI62
aI37
aI44
aI91
aI82
aI73
aI64
aI127
aI118
aI109
aI100
aI38
aI47
aI52
aI61
aI2
aI11
aI16
aI25
aI110
aI103
aI124
aI117
aI74
aI67
aI88
aI81
aI53
aI60
aI39
aI46
aI17
aI24
aI3
aI10
aI125
aI116
aI111
aI102
aI89
aI80
aI75
aI66
aI76
aI69
aI94
aI87
aI104
aI97
aI122
aI115
aI4
aI13
aI22
aI31
aI32
aI41
aI50
aI59
aI95
aI86
aI77
aI68
aI123
aI114
aI105
aI96
aI23
aI30
aI5
aI12
aI51
aI58
aI33
aI40
aI106
aI99
aI120
aI113
aI78
aI71
aI92
aI85
aI34
aI43
aI48
aI57
aI6
aI15
aI20
aI29
aI121
aI112
aI107
aI98
aI93
aI84
aI79
aI70
aI49
aI56
aI35
aI42
aI21
aI28
aI7
aI14
aa(lp146
I0
aI10
aI20
aI30
aI40
aI34
aI60
aI54
aI80
aI90
aI68
aI78
aI120
aI114
aI108
aI102
aI35
aI41
aI55
aI61
aI11
aI1
aI31
aI21
aI115
aI121
aI103
aI109
aI91
aI81
aI79
aI69
aI70
aI76
aI82
aI88
aI110
aI100
aI122
aI112
aI22
aI28
aI2
aI8
aI62
aI52
aI42
aI32
aI101
aI111
aI113
aI123
aI77
aI71
aI89
aI83
aI53
aI63
aI33
aI43
aI29
aI23
aI9
aI3
aI15
aI5
aI27
aI17
aI39
aI45
aI51
aI57
aI95
aI85
aI75
aI65
aI119
aI125
aI99
aI105
aI44
aI38
aI56
aI50
aI4
aI14
aI16
aI26
aI124
aI118
aI104
aI98
aI84
aI94
aI64
aI74
aI73
aI67
aI93
aI87
aI97
aI107
aI117
aI127
aI25
aI19
aI13
aI7
aI49
aI59
aI37
aI47
aI106
aI96
aI126
aI116
aI66
aI72
aI86
aI92
aI58
aI48
aI46
aI36
aI18
aI24
aI6
aI12
aa(lp147
I0
aI11
aI22
aI29
aI44
aI39
aI58
aI49
aI88
aI83
aI78
aI69
aI116
aI127
aI98
aI105
aI51
aI56
aI37
aI46
aI31
aI20
aI9
aI2
aI107
aI96
aI125
aI118
aI71
aI76
aI81
aI90
aI102
aI109
aI112
aI123
aI74
aI65
aI92
aI87
aI62
aI53
aI40
aI35
aI18
aI25
aI4
aI15
aI85
aI94
aI67
aI72
aI121
aI114
aI111
aI100
aI13
aI6
aI27
aI16
aI33
aI42
aI55
aI60
aI79
aI68
aI89
aI82
aI99
aI104
aI117
aI126
aI23
aI28
aI1
aI10
aI59
aI48
aI45
aI38
aI124
aI119
aI106
aI97
aI80
aI91
aI70
aI77
aI36
aI47
aI50
aI57
aI8
aI3
aI30
aI21
aI41
aI34
aI63
aI52
aI5
aI14
aI19
aI24
aI113
aI122
aI103
aI108
aI93
aI86
aI75
aI64
aI26
aI17
aI12
aI7
aI54
aI61
aI32
aI43
aI66
aI73
aI84
aI95
aI110
aI101
aI120
aI115
aa(lp148
I0
aI12
aI24
aI20
aI48
aI60
aI40
aI36
aI96
aI108
aI120
aI116
aI80
aI92
aI72
aI68
aI67
aI79
aI91
aI87
aI115
aI127
aI107
aI103
aI35
aI47
aI59
aI55
aI19
aI31
aI11
aI7
aI5
aI9
aI29
aI17
aI53
aI57
aI45
aI33
aI101
aI105
aI125
aI113
aI85
aI89
aI77
aI65
aI70
aI74
aI94
aI82
aI118
aI122
aI110
aI98
aI38
aI42
aI62
aI50
aI22
aI26
aI14
aI2
aI10
aI6
aI18
aI30
aI58
aI54
aI34
aI46
aI106
aI102
aI114
aI126
aI90
aI86
aI66
aI78
aI73
aI69
aI81
aI93
aI121
aI117
aI97
aI109
aI41
aI37
aI49
aI61
aI25
aI21
aI1
aI13
aI15
aI3
aI23
aI27
aI63
aI51
aI39
aI43
aI111
aI99
aI119
aI123
aI95
aI83
aI71
aI75
aI76
aI64
aI84
aI88
aI124
aI112
aI100
aI104
aI44
aI32
aI52
aI56
aI28
aI16
aI4
aI8
aa(lp149
I0
aI13
aI26
aI23
aI52
aI57
aI46
aI35
aI104
aI101
aI114
aI127
aI92
aI81
aI70
aI75
aI83
aI94
aI73
aI68
aI103
aI106
aI125
aI112
aI59
aI54
aI33
aI44
aI15
aI2
aI21
aI24
aI37
aI40
aI63
aI50
aI17
aI28
aI11
aI6
aI77
aI64
aI87
aI90
aI121
aI116
aI99
aI110
aI118
aI123
aI108
aI97
aI66
aI79
aI88
aI85
aI30
aI19
aI4
aI9
aI42
aI39
aI48
aI61
aI74
aI71
aI80
aI93
aI126
aI115
aI100
aI105
aI34
aI47
aI56
aI53
aI22
aI27
aI12
aI1
aI25
aI20
aI3
aI14
aI45
aI32
aI55
aI58
aI113
aI124
aI107
aI102
aI69
aI72
aI95
aI82
aI111
aI98
aI117
aI120
aI91
aI86
aI65
aI76
aI7
aI10
aI29
aI16
aI51
aI62
aI41
aI36
aI60
aI49
aI38
aI43
aI8
aI5
aI18
aI31
aI84
aI89
aI78
aI67
aI96
aI109
aI122
aI119
aa(lp150
I0
aI14
aI28
aI18
aI56
aI54
aI36
aI42
aI112
aI126
aI108
aI98
aI72
aI70
aI84
aI90
aI99
aI109
aI127
aI113
aI91
aI85
aI71
aI73
aI19
aI29
aI15
aI1
aI43
aI37
aI55
aI57
aI69
aI75
aI89
aI87
aI125
aI115
aI97
aI111
aI53
aI59
aI41
aI39
aI13
aI3
aI17
aI31
aI38
aI40
aI58
aI52
aI30
aI16
aI2
aI12
aI86
aI88
aI74
aI68
aI110
aI96
aI114
aI124
aI9
aI7
aI21
aI27
aI49
aI63
aI45
aI35
aI121
aI119
aI101
aI107
aI65
aI79
aI93
aI83
aI106
aI100
aI118
aI120
aI82
aI92
aI78
aI64
aI26
aI20
aI6
aI8
aI34
aI44
aI62
aI48
aI76
aI66
aI80
aI94
aI116
aI122
aI104
aI102
aI60
aI50
aI32
aI46
aI4
aI10
aI24
aI22
aI47
aI33
aI51
aI61
aI23
aI25
aI11
aI5
aI95
aI81
aI67
aI77
aI103
aI105
aI123
aI117
aa(lp151
I0
aI15
aI30
aI17
aI60
aI51
aI34
aI45
aI120
aI119
aI102
aI105
aI68
aI75
aI90
aI85
aI115
aI124
aI109
aI98
aI79
aI64
aI81
aI94
aI11
aI4
aI21
aI26
aI55
aI56
aI41
aI38
aI101
aI106
aI123
aI116
aI89
aI86
aI71
aI72
aI29
aI18
aI3
aI12
aI33
aI46
aI63
aI48
aI22
aI25
aI8
aI7
aI42
aI37
aI52
aI59
aI110
aI97
aI112
aI127
aI82
aI93
aI76
aI67
aI73
aI70
aI87
aI88
aI117
aI122
aI107
aI100
aI49
aI62
aI47
aI32
aI13
aI2
aI19
aI28
aI58
aI53
aI36
aI43
aI6
aI9
aI24
aI23
aI66
aI77
aI92
aI83
aI126
aI113
aI96
aI111
aI44
aI35
aI50
aI61
aI16
aI31
aI14
aI1
aI84
aI91
aI74
aI69
aI104
aI103
aI118
aI121
aI95
aI80
aI65
aI78
aI99
aI108
aI125
aI114
aI39
aI40
aI57
aI54
aI27
aI20
aI5
aI10
aa(lp152
I0
aI16
aI32
aI48
aI64
aI80
aI96
aI112
aI3
aI19
aI35
aI51
aI67
aI83
aI99
aI115
aI6
aI22
aI38
aI54
aI70
aI86
aI102
aI118
aI5
aI21
aI37
aI53
aI69
aI85
aI101
aI117
aI12
aI28
aI44
aI60
aI76
aI92
aI108
aI124
aI15
aI31
aI47
aI63
aI79
aI95
aI111
aI127
aI10
aI26
aI42
aI58
aI74
aI90
aI106
aI122
aI9
aI25
aI41
aI57
aI73
aI89
aI105
aI121
aI24
aI8
aI56
aI40
aI88
aI72
aI120
aI104
aI27
aI11
aI59
aI43
aI91
aI75
aI123
aI107
aI30
aI14
aI62
aI46
aI94
aI78
aI126
aI110
aI29
aI13
aI61
aI45
aI93
aI77
aI125
aI109
aI20
aI4
aI52
aI36
aI84
aI68
aI116
aI100
aI23
aI7
aI55
aI39
aI87
aI71
aI119
aI103
aI18
aI2
aI50
aI34
aI82
aI66
aI114
aI98
aI17
aI1
aI49
aI33
aI81
aI65
aI113
aI97
aa(lp153
I0
aI17
aI34
aI51
aI68
aI85
aI102
aI119
aI11
aI26
aI41
aI56
aI79
aI94
aI109
aI124
aI22
aI7
aI52
aI37
aI82
aI67
aI112
aI97
aI29
aI12
aI63
aI46
aI89
aI72
aI123
aI106
aI44
aI61
aI14
aI31
aI104
aI121
aI74
aI91
aI39
aI54
aI5
aI20
aI99
aI114
aI65
aI80
aI58
aI43
aI24
aI9
aI126
aI111
aI92
aI77
aI49
aI32
aI19
aI2
aI117
aI100
aI87
aI70
aI88
aI73
aI122
aI107
aI28
aI13
aI62
aI47
aI83
aI66
aI113
aI96
aI23
aI6
aI53
aI36
aI78
aI95
aI108
aI125
aI10
aI27
aI40
aI57
aI69
aI84
aI103
aI118
aI1
aI16
aI35
aI50
aI116
aI101
aI86
aI71
aI48
aI33
aI18
aI3
aI127
aI110
aI93
aI76
aI59
aI42
aI25
aI8
aI98
aI115
aI64
aI81
aI38
aI55
aI4
aI21
aI105
aI120
aI75
aI90
aI45
aI60
aI15
aI30
aa(lp154
I0
aI18
aI36
aI54
aI72
aI90
aI108
aI126
aI19
aI1
aI55
aI37
aI91
aI73
aI127
aI109
aI38
aI52
aI2
aI16
aI110
aI124
aI74
aI88
aI53
aI39
aI17
aI3
aI125
aI111
aI89
aI75
aI76
aI94
aI104
aI122
aI4
aI22
aI32
aI50
aI95
aI77
aI123
aI105
aI23
aI5
aI51
aI33
aI106
aI120
aI78
aI92
aI34
aI48
aI6
aI20
aI121
aI107
aI93
aI79
aI49
aI35
aI21
aI7
aI27
aI9
aI63
aI45
aI83
aI65
aI119
aI101
aI8
aI26
aI44
aI62
aI64
aI82
aI100
aI118
aI61
aI47
aI25
aI11
aI117
aI103
aI81
aI67
aI46
aI60
aI10
aI24
aI102
aI116
aI66
aI80
aI87
aI69
aI115
aI97
aI31
aI13
aI59
aI41
aI68
aI86
aI96
aI114
aI12
aI30
aI40
aI58
aI113
aI99
aI85
aI71
aI57
aI43
aI29
aI15
aI98
aI112
aI70
aI84
aI42
aI56
aI14
aI28
aa(lp155
I0
aI19
aI38
aI53
aI76
aI95
aI106
aI121
aI27
aI8
aI61
aI46
aI87
aI68
aI113
aI98
aI54
aI37
aI16
aI3
aI122
aI105
aI92
aI79
aI45
aI62
aI11
aI24
aI97
aI114
aI71
aI84
aI108
aI127
aI74
aI89
aI32
aI51
aI6
aI21
aI119
aI100
aI81
aI66
aI59
aI40
aI29
aI14
aI90
aI73
aI124
aI111
aI22
aI5
aI48
aI35
aI65
aI82
aI103
aI116
aI13
aI30
aI43
aI56
aI91
aI72
aI125
aI110
aI23
aI4
aI49
aI34
aI64
aI83
aI102
aI117
aI12
aI31
aI42
aI57
aI109
aI126
aI75
aI88
aI33
aI50
aI7
aI20
aI118
aI101
aI80
aI67
aI58
aI41
aI28
aI15
aI55
aI36
aI17
aI2
aI123
aI104
aI93
aI78
aI44
aI63
aI10
aI25
aI96
aI115
aI70
aI85
aI1
aI18
aI39
aI52
aI77
aI94
aI107
aI120
aI26
aI9
aI60
aI47
aI86
aI69
aI112
aI99
aa(lp156
I0
aI20
aI40
aI60
aI80
aI68
aI120
aI108
aI35
aI55
aI11
aI31
aI115
aI103
aI91
aI79
aI70
aI82
aI110
aI122
aI22
aI2
aI62
aI42
aI101
aI113
aI77
aI89
aI53
aI33
aI29
aI9
aI15
aI27
aI39
aI51
aI95
aI75
aI119
aI99
aI44
aI56
aI4
aI16
aI124
aI104
aI84
aI64
aI73
aI93
aI97
aI117
aI25
aI13
aI49
aI37
aI106
aI126
aI66
aI86
aI58
aI46
aI18
aI6
aI30
aI10
aI54
aI34
aI78
aI90
aI102
aI114
aI61
aI41
aI21
aI1
aI109
aI121
aI69
aI81
aI88
aI76
aI112
aI100
aI8
aI28
aI32
aI52
aI123
aI111
aI83
aI71
aI43
aI63
aI3
aI23
aI17
aI5
aI57
aI45
aI65
aI85
aI105
aI125
aI50
aI38
aI26
aI14
aI98
aI118
aI74
aI94
aI87
aI67
aI127
aI107
aI7
aI19
aI47
aI59
aI116
aI96
aI92
aI72
aI36
aI48
aI12
aI24
aa(lp157
I0
aI21
aI42
aI63
aI84
aI65
aI126
aI107
aI43
aI62
aI1
aI20
aI127
aI106
aI85
aI64
aI86
aI67
aI124
aI105
aI2
aI23
aI40
aI61
aI125
aI104
aI87
aI66
aI41
aI60
aI3
aI22
aI47
aI58
aI5
aI16
aI123
aI110
aI81
aI68
aI4
aI17
aI46
aI59
aI80
aI69
aI122
aI111
aI121
aI108
aI83
aI70
aI45
aI56
aI7
aI18
aI82
aI71
aI120
aI109
aI6
aI19
aI44
aI57
aI94
aI75
aI116
aI97
aI10
aI31
aI32
aI53
aI117
aI96
aI95
aI74
aI33
aI52
aI11
aI30
aI8
aI29
aI34
aI55
aI92
aI73
aI118
aI99
aI35
aI54
aI9
aI28
aI119
aI98
aI93
aI72
aI113
aI100
aI91
aI78
aI37
aI48
aI15
aI26
aI90
aI79
aI112
aI101
aI14
aI27
aI36
aI49
aI39
aI50
aI13
aI24
aI115
aI102
aI89
aI76
aI12
aI25
aI38
aI51
aI88
aI77
aI114
aI103
aa(lp158
I0
aI22
aI44
aI58
aI88
aI78
aI116
aI98
aI51
aI37
aI31
aI9
aI107
aI125
aI71
aI81
aI102
aI112
aI74
aI92
aI62
aI40
aI18
aI4
aI85
aI67
aI121
aI111
aI13
aI27
aI33
aI55
aI79
aI89
aI99
aI117
aI23
aI1
aI59
aI45
aI124
aI106
aI80
aI70
aI36
aI50
aI8
aI30
aI41
aI63
aI5
aI19
aI113
aI103
aI93
aI75
aI26
aI12
aI54
aI32
aI66
aI84
aI110
aI120
aI29
aI11
aI49
aI39
aI69
aI83
aI105
aI127
aI46
aI56
aI2
aI20
aI118
aI96
aI90
aI76
aI123
aI109
aI87
aI65
aI35
aI53
aI15
aI25
aI72
aI94
aI100
aI114
aI16
aI6
aI60
aI42
aI82
aI68
aI126
aI104
aI10
aI28
aI38
aI48
aI97
aI119
aI77
aI91
aI57
aI47
aI21
aI3
aI52
aI34
aI24
aI14
aI108
aI122
aI64
aI86
aI7
aI17
aI43
aI61
aI95
aI73
aI115
aI101
aa(lp159
I0
aI23
aI46
aI57
aI92
aI75
aI114
aI101
aI59
aI44
aI21
aI2
aI103
aI112
aI73
aI94
aI118
aI97
aI88
aI79
aI42
aI61
aI4
aI19
aI77
aI90
aI99
aI116
aI17
aI6
aI63
aI40
aI111
aI120
aI65
aI86
aI51
aI36
aI29
aI10
aI84
aI67
aI122
aI109
aI8
aI31
aI38
aI49
aI25
aI14
aI55
aI32
aI69
aI82
aI107
aI124
aI34
aI53
aI12
aI27
aI126
aI105
aI80
aI71
aI93
aI74
aI115
aI100
aI1
aI22
aI47
aI56
aI102
aI113
aI72
aI95
aI58
aI45
aI20
aI3
aI43
aI60
aI5
aI18
aI119
aI96
aI89
aI78
aI16
aI7
aI62
aI41
aI76
aI91
aI98
aI117
aI50
aI37
aI28
aI11
aI110
aI121
aI64
aI87
aI9
aI30
aI39
aI48
aI85
aI66
aI123
aI108
aI68
aI83
aI106
aI125
aI24
aI15
aI54
aI33
aI127
aI104
aI81
aI70
aI35
aI52
aI13
aI26
aa(lp160
I0
aI24
aI48
aI40
aI96
aI120
aI80
aI72
aI67
aI91
aI115
aI107
aI35
aI59
aI19
aI11
aI5
aI29
aI53
aI45
aI101
aI125
aI85
aI77
aI70
aI94
aI118
aI110
aI38
aI62
aI22
aI14
aI10
aI18
aI58
aI34
aI106
aI114
aI90
aI66
aI73
aI81
aI121
aI97
aI41
aI49
aI25
aI1
aI15
aI23
aI63
aI39
aI111
aI119
aI95
aI71
aI76
aI84
aI124
aI100
aI44
aI52
aI28
aI4
aI20
aI12
aI36
aI60
aI116
aI108
aI68
aI92
aI87
aI79
aI103
aI127
aI55
aI47
aI7
aI31
aI17
aI9
aI33
aI57
aI113
aI105
aI65
aI89
aI82
aI74
aI98
aI122
aI50
aI42
aI2
aI26
aI30
aI6
aI46
aI54
aI126
aI102
aI78
aI86
aI93
aI69
aI109
aI117
aI61
aI37
aI13
aI21
aI27
aI3
aI43
aI51
aI123
aI99
aI75
aI83
aI88
aI64
aI104
aI112
aI56
aI32
aI8
aI16
aa(lp161
I0
aI25
aI50
aI43
aI100
aI125
aI86
aI79
aI75
aI82
aI121
aI96
aI47
aI54
aI29
aI4
aI21
aI12
aI39
aI62
aI113
aI104
aI67
aI90
aI94
aI71
aI108
aI117
aI58
aI35
aI8
aI17
aI42
aI51
aI24
aI1
aI78
aI87
aI124
aI101
aI97
aI120
aI83
aI74
aI5
aI28
aI55
aI46
aI63
aI38
aI13
aI20
aI91
aI66
aI105
aI112
aI116
aI109
aI70
aI95
aI16
aI9
aI34
aI59
aI84
aI77
aI102
aI127
aI48
aI41
aI2
aI27
aI31
aI6
aI45
aI52
aI123
aI98
aI73
aI80
aI65
aI88
aI115
aI106
aI37
aI60
aI23
aI14
aI10
aI19
aI56
aI33
aI110
aI119
aI92
aI69
aI126
aI103
aI76
aI85
aI26
aI3
aI40
aI49
aI53
aI44
aI7
aI30
aI81
aI72
aI99
aI122
aI107
aI114
aI89
aI64
aI15
aI22
aI61
aI36
aI32
aI57
aI18
aI11
aI68
aI93
aI118
aI111
aa(lp162
I0
aI26
aI52
aI46
aI104
aI114
aI92
aI70
aI83
aI73
aI103
aI125
aI59
aI33
aI15
aI21
aI37
aI63
aI17
aI11
aI77
aI87
aI121
aI99
aI118
aI108
aI66
aI88
aI30
aI4
aI42
aI48
aI74
aI80
aI126
aI100
aI34
aI56
aI22
aI12
aI25
aI3
aI45
aI55
aI113
aI107
aI69
aI95
aI111
aI117
aI91
aI65
aI7
aI29
aI51
aI41
aI60
aI38
aI8
aI18
aI84
aI78
aI96
aI122
aI23
aI13
aI35
aI57
aI127
aI101
aI75
aI81
aI68
aI94
aI112
aI106
aI44
aI54
aI24
aI2
aI50
aI40
aI6
aI28
aI90
aI64
aI110
aI116
aI97
aI123
aI85
aI79
aI9
aI19
aI61
aI39
aI93
aI71
aI105
aI115
aI53
aI47
aI1
aI27
aI14
aI20
aI58
aI32
aI102
aI124
aI82
aI72
aI120
aI98
aI76
aI86
aI16
aI10
aI36
aI62
aI43
aI49
aI31
aI5
aI67
aI89
aI119
aI109
aa(lp163
I0
aI27
aI54
aI45
aI108
aI119
aI90
aI65
aI91
aI64
aI109
aI118
aI55
aI44
aI1
aI26
aI53
aI46
aI3
aI24
aI89
aI66
aI111
aI116
aI110
aI117
aI88
aI67
aI2
aI25
aI52
aI47
aI106
aI113
aI92
aI71
aI6
aI29
aI48
aI43
aI49
aI42
aI7
aI28
aI93
aI70
aI107
aI112
aI95
aI68
aI105
aI114
aI51
aI40
aI5
aI30
aI4
aI31
aI50
aI41
aI104
aI115
aI94
aI69
aI87
aI76
aI97
aI122
aI59
aI32
aI13
aI22
aI12
aI23
aI58
aI33
aI96
aI123
aI86
aI77
aI98
aI121
aI84
aI79
aI14
aI21
aI56
aI35
aI57
aI34
aI15
aI20
aI85
aI78
aI99
aI120
aI61
aI38
aI11
aI16
aI81
aI74
aI103
aI124
aI102
aI125
aI80
aI75
aI10
aI17
aI60
aI39
aI8
aI19
aI62
aI37
aI100
aI127
aI82
aI73
aI83
aI72
aI101
aI126
aI63
aI36
aI9
aI18
aa(lp164
I0
aI28
aI56
aI36
aI112
aI108
aI72
aI84
aI99
aI127
aI91
aI71
aI19
aI15
aI43
aI55
aI69
aI89
aI125
aI97
aI53
aI41
aI13
aI17
aI38
aI58
aI30
aI2
aI86
aI74
aI110
aI114
aI9
aI21
aI49
aI45
aI121
aI101
aI65
aI93
aI106
aI118
aI82
aI78
aI26
aI6
aI34
aI62
aI76
aI80
aI116
aI104
aI60
aI32
aI4
aI24
aI47
aI51
aI23
aI11
aI95
aI67
aI103
aI123
aI18
aI14
aI42
aI54
aI98
aI126
aI90
aI70
aI113
aI109
aI73
aI85
aI1
aI29
aI57
aI37
aI87
aI75
aI111
aI115
aI39
aI59
aI31
aI3
aI52
aI40
aI12
aI16
aI68
aI88
aI124
aI96
aI27
aI7
aI35
aI63
aI107
aI119
aI83
aI79
aI120
aI100
aI64
aI92
aI8
aI20
aI48
aI44
aI94
aI66
aI102
aI122
aI46
aI50
aI22
aI10
aI61
aI33
aI5
aI25
aI77
aI81
aI117
aI105
aa(lp165
I0
aI29
aI58
aI39
aI116
aI105
aI78
aI83
aI107
aI118
aI81
aI76
aI31
aI2
aI37
aI56
aI85
aI72
aI111
aI114
aI33
aI60
aI27
aI6
aI62
aI35
aI4
aI25
aI74
aI87
aI112
aI109
aI41
aI52
aI19
aI14
aI93
aI64
aI103
aI122
aI66
aI95
aI120
aI101
aI54
aI43
aI12
aI17
aI124
aI97
aI70
aI91
aI8
aI21
aI50
aI47
aI23
aI10
aI45
aI48
aI99
aI126
aI89
aI68
aI82
aI79
aI104
aI117
aI38
aI59
aI28
aI1
aI57
aI36
aI3
aI30
aI77
aI80
aI119
aI106
aI7
aI26
aI61
aI32
aI115
aI110
aI73
aI84
aI108
aI113
aI86
aI75
aI24
aI5
aI34
aI63
aI123
aI102
aI65
aI92
aI15
aI18
aI53
aI40
aI16
aI13
aI42
aI55
aI100
aI121
aI94
aI67
aI46
aI51
aI20
aI9
aI90
aI71
aI96
aI125
aI69
aI88
aI127
aI98
aI49
aI44
aI11
aI22
aa(lp166
I0
aI30
aI60
aI34
aI120
aI102
aI68
aI90
aI115
aI109
aI79
aI81
aI11
aI21
aI55
aI41
aI101
aI123
aI89
aI71
aI29
aI3
aI33
aI63
aI22
aI8
aI42
aI52
aI110
aI112
aI82
aI76
aI73
aI87
aI117
aI107
aI49
aI47
aI13
aI19
aI58
aI36
aI6
aI24
aI66
aI92
aI126
aI96
aI44
aI50
aI16
aI14
aI84
aI74
aI104
aI118
aI95
aI65
aI99
aI125
aI39
aI57
aI27
aI5
aI17
aI15
aI45
aI51
aI105
aI119
aI85
aI75
aI98
aI124
aI94
aI64
aI26
aI4
aI38
aI56
aI116
aI106
aI72
aI86
aI12
aI18
aI48
aI46
aI7
aI25
aI59
aI37
aI127
aI97
aI67
aI93
aI88
aI70
aI100
aI122
aI32
aI62
aI28
aI2
aI43
aI53
aI23
aI9
aI83
aI77
aI111
aI113
aI61
aI35
aI1
aI31
aI69
aI91
aI121
aI103
aI78
aI80
aI114
aI108
aI54
aI40
aI10
aI20
aa(lp167
I0
aI31
aI62
aI33
aI124
aI99
aI66
aI93
aI123
aI100
aI69
aI90
aI7
aI24
aI57
aI38
aI117
aI106
aI75
aI84
aI9
aI22
aI55
aI40
aI14
aI17
aI48
aI47
aI114
aI109
aI76
aI83
aI105
aI118
aI87
aI72
aI21
aI10
aI43
aI52
aI18
aI13
aI44
aI51
aI110
aI113
aI80
aI79
aI28
aI3
aI34
aI61
aI96
aI127
aI94
aI65
aI103
aI120
aI89
aI70
aI27
aI4
aI37
aI58
aI81
aI78
aI111
aI112
aI45
aI50
aI19
aI12
aI42
aI53
aI20
aI11
aI86
aI73
aI104
aI119
aI36
aI59
aI26
aI5
aI88
aI71
aI102
aI121
aI95
aI64
aI97
aI126
aI35
aI60
aI29
aI2
aI56
aI39
aI6
aI25
aI68
aI91
aI122
aI101
aI67
aI92
aI125
aI98
aI63
aI32
aI1
aI30
aI77
aI82
aI115
aI108
aI49
aI46
aI15
aI16
aI54
aI41
aI8
aI23
aI74
aI85
aI116
aI107
aa(lp168
I0
aI32
aI64
aI96
aI3
aI35
aI67
aI99
aI6
aI38
aI70
aI102
aI5
aI37
aI69
aI101
aI12
aI44
aI76
aI108
aI15
aI47
aI79
aI111
aI10
aI42
aI74
aI106
aI9
aI41
aI73
aI105
aI24
aI56
aI88
aI120
aI27
aI59
aI91
aI123
aI30
aI62
aI94
aI126
aI29
aI61
aI93
aI125
aI20
aI52
aI84
aI116
aI23
aI55
aI87
aI119
aI18
aI50
aI82
aI114
aI17
aI49
aI81
aI113
aI48
aI16
aI112
aI80
aI51
aI19
aI115
aI83
aI54
aI22
aI118
aI86
aI53
aI21
aI117
aI85
aI60
aI28
aI124
aI92
aI63
aI31
aI127
aI95
aI58
aI26
aI122
aI90
aI57
aI25
aI121
aI89
aI40
aI8
aI104
aI72
aI43
aI11
aI107
aI75
aI46
aI14
aI110
aI78
aI45
aI13
aI109
aI77
aI36
aI4
aI100
aI68
aI39
aI7
aI103
aI71
aI34
aI2
aI98
aI66
aI33
aI1
aI97
aI65
aa(lp169
I0
aI33
aI66
aI99
aI7
aI38
aI69
aI100
aI14
aI47
aI76
aI109
aI9
aI40
aI75
aI106
aI28
aI61
aI94
aI127
aI27
aI58
aI89
aI120
aI18
aI51
aI80
aI113
aI21
aI52
aI87
aI118
aI56
aI25
aI122
aI91
aI63
aI30
aI125
aI92
aI54
aI23
aI116
aI85
aI49
aI16
aI115
aI82
aI36
aI5
aI102
aI71
aI35
aI2
aI97
aI64
aI42
aI11
aI104
aI73
aI45
aI12
aI111
aI78
aI112
aI81
aI50
aI19
aI119
aI86
aI53
aI20
aI126
aI95
aI60
aI29
aI121
aI88
aI59
aI26
aI108
aI77
aI46
aI15
aI107
aI74
aI41
aI8
aI98
aI67
aI32
aI1
aI101
aI68
aI39
aI6
aI72
aI105
aI10
aI43
aI79
aI110
aI13
aI44
aI70
aI103
aI4
aI37
aI65
aI96
aI3
aI34
aI84
aI117
aI22
aI55
aI83
aI114
aI17
aI48
aI90
aI123
aI24
aI57
aI93
aI124
aI31
aI62
aa(lp170
I0
aI34
aI68
aI102
aI11
aI41
aI79
aI109
aI22
aI52
aI82
aI112
aI29
aI63
aI89
aI123
aI44
aI14
aI104
aI74
aI39
aI5
aI99
aI65
aI58
aI24
aI126
aI92
aI49
aI19
aI117
aI87
aI88
aI122
aI28
aI62
aI83
aI113
aI23
aI53
aI78
aI108
aI10
aI40
aI69
aI103
aI1
aI35
aI116
aI86
aI48
aI18
aI127
aI93
aI59
aI25
aI98
aI64
aI38
aI4
aI105
aI75
aI45
aI15
aI51
aI17
aI119
aI85
aI56
aI26
aI124
aI94
aI37
aI7
aI97
aI67
aI46
aI12
aI106
aI72
aI31
aI61
aI91
aI121
aI20
aI54
aI80
aI114
aI9
aI43
aI77
aI111
aI2
aI32
aI70
aI100
aI107
aI73
aI47
aI13
aI96
aI66
aI36
aI6
aI125
aI95
aI57
aI27
aI118
aI84
aI50
aI16
aI71
aI101
aI3
aI33
aI76
aI110
aI8
aI42
aI81
aI115
aI21
aI55
aI90
aI120
aI30
aI60
aa(lp171
I0
aI35
aI70
aI101
aI15
aI44
aI73
aI106
aI30
aI61
aI88
aI123
aI17
aI50
aI87
aI116
aI60
aI31
aI122
aI89
aI51
aI16
aI117
aI86
aI34
aI1
aI100
aI71
aI45
aI14
aI107
aI72
aI120
aI91
aI62
aI29
aI119
aI84
aI49
aI18
aI102
aI69
aI32
aI3
aI105
aI74
aI47
aI12
aI68
aI103
aI2
aI33
aI75
aI104
aI13
aI46
aI90
aI121
aI28
aI63
aI85
aI118
aI19
aI48
aI115
aI80
aI53
aI22
aI124
aI95
aI58
aI25
aI109
aI78
aI43
aI8
aI98
aI65
aI36
aI7
aI79
aI108
aI9
aI42
aI64
aI99
aI6
aI37
aI81
aI114
aI23
aI52
aI94
aI125
aI24
aI59
aI11
aI40
aI77
aI110
aI4
aI39
aI66
aI97
aI21
aI54
aI83
aI112
aI26
aI57
aI92
aI127
aI55
aI20
aI113
aI82
aI56
aI27
aI126
aI93
aI41
aI10
aI111
aI76
aI38
aI5
aI96
aI67
aa(lp172
I0
aI36
aI72
aI108
aI19
aI55
aI91
aI127
aI38
aI2
aI110
aI74
aI53
aI17
aI125
aI89
aI76
aI104
aI4
aI32
aI95
aI123
aI23
aI51
aI106
aI78
aI34
aI6
aI121
aI93
aI49
aI21
aI27
aI63
aI83
aI119
aI8
aI44
aI64
aI100
aI61
aI25
aI117
aI81
aI46
aI10
aI102
aI66
aI87
aI115
aI31
aI59
aI68
aI96
aI12
aI40
aI113
aI85
aI57
aI29
aI98
aI70
aI42
aI14
aI54
aI18
aI126
aI90
aI37
aI1
aI109
aI73
aI16
aI52
aI88
aI124
aI3
aI39
aI75
aI111
aI122
aI94
aI50
aI22
aI105
aI77
aI33
aI5
aI92
aI120
aI20
aI48
aI79
aI107
aI7
aI35
aI45
aI9
aI101
aI65
aI62
aI26
aI118
aI82
aI11
aI47
aI67
aI103
aI24
aI60
aI80
aI116
aI97
aI69
aI41
aI13
aI114
aI86
aI58
aI30
aI71
aI99
aI15
aI43
aI84
aI112
aI28
aI56
aa(lp173
I0
aI37
aI74
aI111
aI23
aI50
aI93
aI120
aI46
aI11
aI100
aI65
aI57
aI28
aI115
aI86
aI92
aI121
aI22
aI51
aI75
aI110
aI1
aI36
aI114
aI87
aI56
aI29
aI101
aI64
aI47
aI10
aI59
aI30
aI113
aI84
aI44
aI9
aI102
aI67
aI21
aI48
aI95
aI122
aI2
aI39
aI72
aI109
aI103
aI66
aI45
aI8
aI112
aI85
aI58
aI31
aI73
aI108
aI3
aI38
aI94
aI123
aI20
aI49
aI118
aI83
aI60
aI25
aI97
aI68
aI43
aI14
aI88
aI125
aI18
aI55
aI79
aI106
aI5
aI32
aI42
aI15
aI96
aI69
aI61
aI24
aI119
aI82
aI4
aI33
aI78
aI107
aI19
aI54
aI89
aI124
aI77
aI104
aI7
aI34
aI90
aI127
aI16
aI53
aI99
aI70
aI41
aI12
aI116
aI81
aI62
aI27
aI17
aI52
aI91
aI126
aI6
aI35
aI76
aI105
aI63
aI26
aI117
aI80
aI40
aI13
aI98
aI71
aa(lp174
I0
aI38
aI76
aI106
aI27
aI61
aI87
aI113
aI54
aI16
aI122
aI92
aI45
aI11
aI97
aI71
aI108
aI74
aI32
aI6
aI119
aI81
aI59
aI29
aI90
aI124
aI22
aI48
aI65
aI103
aI13
aI43
aI91
aI125
aI23
aI49
aI64
aI102
aI12
aI42
aI109
aI75
aI33
aI7
aI118
aI80
aI58
aI28
aI55
aI17
aI123
aI93
aI44
aI10
aI96
aI70
aI1
aI39
aI77
aI107
aI26
aI60
aI86
aI112
aI53
aI19
aI121
aI95
aI46
aI8
aI98
aI68
aI3
aI37
aI79
aI105
aI24
aI62
aI84
aI114
aI89
aI127
aI21
aI51
aI66
aI100
aI14
aI40
aI111
aI73
aI35
aI5
aI116
aI82
aI56
aI30
aI110
aI72
aI34
aI4
aI117
aI83
aI57
aI31
aI88
aI126
aI20
aI50
aI67
aI101
aI15
aI41
aI2
aI36
aI78
aI104
aI25
aI63
aI85
aI115
aI52
aI18
aI120
aI94
aI47
aI9
aI99
aI69
aa(lp175
I0
aI39
aI78
aI105
aI31
aI56
aI81
aI118
aI62
aI25
aI112
aI87
aI33
aI6
aI111
aI72
aI124
aI91
aI50
aI21
aI99
aI68
aI45
aI10
aI66
aI101
aI12
aI43
aI93
aI122
aI19
aI52
aI123
aI92
aI53
aI18
aI100
aI67
aI42
aI13
aI69
aI98
aI11
aI44
aI90
aI125
aI20
aI51
aI7
aI32
aI73
aI110
aI24
aI63
aI86
aI113
aI57
aI30
aI119
aI80
aI38
aI1
aI104
aI79
aI117
aI82
aI59
aI28
aI106
aI77
aI36
aI3
aI75
aI108
aI5
aI34
aI84
aI115
aI26
aI61
aI9
aI46
aI71
aI96
aI22
aI49
aI88
aI127
aI55
aI16
aI121
aI94
aI40
aI15
aI102
aI65
aI14
aI41
aI64
aI103
aI17
aI54
aI95
aI120
aI48
aI23
aI126
aI89
aI47
aI8
aI97
aI70
aI114
aI85
aI60
aI27
aI109
aI74
aI35
aI4
aI76
aI107
aI2
aI37
aI83
aI116
aI29
aI58
aa(lp176
I0
aI40
aI80
aI120
aI35
aI11
aI115
aI91
aI70
aI110
aI22
aI62
aI101
aI77
aI53
aI29
aI15
aI39
aI95
aI119
aI44
aI4
aI124
aI84
aI73
aI97
aI25
aI49
aI106
aI66
aI58
aI18
aI30
aI54
aI78
aI102
aI61
aI21
aI109
aI69
aI88
aI112
aI8
aI32
aI123
aI83
aI43
aI3
aI17
aI57
aI65
aI105
aI50
aI26
aI98
aI74
aI87
aI127
aI7
aI47
aI116
aI92
aI36
aI12
aI60
aI20
aI108
aI68
aI31
aI55
aI79
aI103
aI122
aI82
aI42
aI2
aI89
aI113
aI9
aI33
aI51
aI27
aI99
aI75
aI16
aI56
aI64
aI104
aI117
aI93
aI37
aI13
aI86
aI126
aI6
aI46
aI34
aI10
aI114
aI90
aI1
aI41
aI81
aI121
aI100
aI76
aI52
aI28
aI71
aI111
aI23
aI63
aI45
aI5
aI125
aI85
aI14
aI38
aI94
aI118
aI107
aI67
aI59
aI19
aI72
aI96
aI24
aI48
aa(lp177
I0
aI41
aI82
aI123
aI39
aI14
aI117
aI92
aI78
aI103
aI28
aI53
aI105
aI64
aI59
aI18
aI31
aI54
aI77
aI100
aI56
aI17
aI106
aI67
aI81
aI120
aI3
aI42
aI118
aI95
aI36
aI13
aI62
aI23
aI108
aI69
aI25
aI48
aI75
aI98
aI112
aI89
aI34
aI11
aI87
aI126
aI5
aI44
aI33
aI8
aI115
aI90
aI6
aI47
aI84
aI125
aI111
aI70
aI61
aI20
aI72
aI97
aI26
aI51
aI124
aI85
aI46
aI7
aI91
aI114
aI9
aI32
aI50
aI27
aI96
aI73
aI21
aI60
aI71
aI110
aI99
aI74
aI49
aI24
aI68
aI109
aI22
aI63
aI45
aI4
aI127
aI86
aI10
aI35
aI88
aI113
aI66
aI107
aI16
aI57
aI101
aI76
aI55
aI30
aI12
aI37
aI94
aI119
aI43
aI2
aI121
aI80
aI93
aI116
aI15
aI38
aI122
aI83
aI40
aI1
aI19
aI58
aI65
aI104
aI52
aI29
aI102
aI79
aa(lp178
I0
aI42
aI84
aI126
aI43
aI1
aI127
aI85
aI86
aI124
aI2
aI40
aI125
aI87
aI41
aI3
aI47
aI5
aI123
aI81
aI4
aI46
aI80
aI122
aI121
aI83
aI45
aI7
aI82
aI120
aI6
aI44
aI94
aI116
aI10
aI32
aI117
aI95
aI33
aI11
aI8
aI34
aI92
aI118
aI35
aI9
aI119
aI93
aI113
aI91
aI37
aI15
aI90
aI112
aI14
aI36
aI39
aI13
aI115
aI89
aI12
aI38
aI88
aI114
aI63
aI21
aI107
aI65
aI20
aI62
aI64
aI106
aI105
aI67
aI61
aI23
aI66
aI104
aI22
aI60
aI16
aI58
aI68
aI110
aI59
aI17
aI111
aI69
aI70
aI108
aI18
aI56
aI109
aI71
aI57
aI19
aI97
aI75
aI53
aI31
aI74
aI96
aI30
aI52
aI55
aI29
aI99
aI73
aI28
aI54
aI72
aI98
aI78
aI100
aI26
aI48
aI101
aI79
aI49
aI27
aI24
aI50
aI76
aI102
aI51
aI25
aI103
aI77
aa(lp179
I0
aI43
aI86
aI125
aI47
aI4
aI121
aI82
aI94
aI117
aI8
aI35
aI113
aI90
aI39
aI12
aI63
aI20
aI105
aI66
aI16
aI59
aI70
aI109
aI97
aI74
aI55
aI28
aI78
aI101
aI24
aI51
aI126
aI85
aI40
aI3
aI81
aI122
aI7
aI44
aI32
aI11
aI118
aI93
aI15
aI36
aI89
aI114
aI65
aI106
aI23
aI60
aI110
aI69
aI56
aI19
aI31
aI52
aI73
aI98
aI48
aI27
aI102
aI77
aI127
aI84
aI41
aI2
aI80
aI123
aI6
aI45
aI33
aI10
aI119
aI92
aI14
aI37
aI88
aI115
aI64
aI107
aI22
aI61
aI111
aI68
aI57
aI18
aI30
aI53
aI72
aI99
aI49
aI26
aI103
aI76
aI1
aI42
aI87
aI124
aI46
aI5
aI120
aI83
aI95
aI116
aI9
aI34
aI112
aI91
aI38
aI13
aI62
aI21
aI104
aI67
aI17
aI58
aI71
aI108
aI96
aI75
aI54
aI29
aI79
aI100
aI25
aI50
aa(lp180
I0
aI44
aI88
aI116
aI51
aI31
aI107
aI71
aI102
aI74
aI62
aI18
aI85
aI121
aI13
aI33
aI79
aI99
aI23
aI59
aI124
aI80
aI36
aI8
aI41
aI5
aI113
aI93
aI26
aI54
aI66
aI110
aI29
aI49
aI69
aI105
aI46
aI2
aI118
aI90
aI123
aI87
aI35
aI15
aI72
aI100
aI16
aI60
aI82
aI126
aI10
aI38
aI97
aI77
aI57
aI21
aI52
aI24
aI108
aI64
aI7
aI43
aI95
aI115
aI58
aI22
aI98
aI78
aI9
aI37
aI81
aI125
aI92
aI112
aI4
aI40
aI111
aI67
aI55
aI27
aI117
aI89
aI45
aI1
aI70
aI106
aI30
aI50
aI19
aI63
aI75
aI103
aI32
aI12
aI120
aI84
aI39
aI11
aI127
aI83
aI20
aI56
aI76
aI96
aI65
aI109
aI25
aI53
aI114
aI94
aI42
aI6
aI104
aI68
aI48
aI28
aI91
aI119
aI3
aI47
aI14
aI34
aI86
aI122
aI61
aI17
aI101
aI73
aa(lp181
I0
aI45
aI90
aI119
aI55
aI26
aI109
aI64
aI110
aI67
aI52
aI25
aI89
aI116
aI3
aI46
aI95
aI114
aI5
aI40
aI104
aI69
aI50
aI31
aI49
aI28
aI107
aI70
aI6
aI43
aI92
aI113
aI61
aI16
aI103
aI74
aI10
aI39
aI80
aI125
aI83
aI126
aI9
aI36
aI100
aI73
aI62
aI19
aI98
aI79
aI56
aI21
aI85
aI120
aI15
aI34
aI12
aI33
aI86
aI123
aI59
aI22
aI97
aI76
aI122
aI87
aI32
aI13
aI77
aI96
aI23
aI58
aI20
aI57
aI78
aI99
aI35
aI14
aI121
aI84
aI37
aI8
aI127
aI82
aI18
aI63
aI72
aI101
aI75
aI102
aI17
aI60
aI124
aI81
aI38
aI11
aI71
aI106
aI29
aI48
aI112
aI93
aI42
aI7
aI41
aI4
aI115
aI94
aI30
aI51
aI68
aI105
aI24
aI53
aI66
aI111
aI47
aI2
aI117
aI88
aI118
aI91
aI44
aI1
aI65
aI108
aI27
aI54
aa(lp182
I0
aI46
aI92
aI114
aI59
aI21
aI103
aI73
aI118
aI88
aI42
aI4
aI77
aI99
aI17
aI63
aI111
aI65
aI51
aI29
aI84
aI122
aI8
aI38
aI25
aI55
aI69
aI107
aI34
aI12
aI126
aI80
aI93
aI115
aI1
aI47
aI102
aI72
aI58
aI20
aI43
aI5
aI119
aI89
aI16
aI62
aI76
aI98
aI50
aI28
aI110
aI64
aI9
aI39
aI85
aI123
aI68
aI106
aI24
aI54
aI127
aI81
aI35
aI13
aI57
aI23
aI101
aI75
aI2
aI44
aI94
aI112
aI79
aI97
aI19
aI61
aI116
aI90
aI40
aI6
aI86
aI120
aI10
aI36
aI109
aI67
aI49
aI31
aI32
aI14
aI124
aI82
aI27
aI53
aI71
aI105
aI100
aI74
aI56
aI22
aI95
aI113
aI3
aI45
aI18
aI60
aI78
aI96
aI41
aI7
aI117
aI91
aI11
aI37
aI87
aI121
aI48
aI30
aI108
aI66
aI125
aI83
aI33
aI15
aI70
aI104
aI26
aI52
aa(lp183
I0
aI47
aI94
aI113
aI63
aI16
aI97
aI78
aI126
aI81
aI32
aI15
aI65
aI110
aI31
aI48
aI127
aI80
aI33
aI14
aI64
aI111
aI30
aI49
aI1
aI46
aI95
aI112
aI62
aI17
aI96
aI79
aI125
aI82
aI35
aI12
aI66
aI109
aI28
aI51
aI3
aI44
aI93
aI114
aI60
aI19
aI98
aI77
aI2
aI45
aI92
aI115
aI61
aI18
aI99
aI76
aI124
aI83
aI34
aI13
aI67
aI108
aI29
aI50
aI121
aI86
aI39
aI8
aI70
aI105
aI24
aI55
aI7
aI40
aI89
aI118
aI56
aI23
aI102
aI73
aI6
aI41
aI88
aI119
aI57
aI22
aI103
aI72
aI120
aI87
aI38
aI9
aI71
aI104
aI25
aI54
aI4
aI43
aI90
aI117
aI59
aI20
aI101
aI74
aI122
aI85
aI36
aI11
aI69
aI106
aI27
aI52
aI123
aI84
aI37
aI10
aI68
aI107
aI26
aI53
aI5
aI42
aI91
aI116
aI58
aI21
aI100
aI75
aa(lp184
I0
aI48
aI96
aI80
aI67
aI115
aI35
aI19
aI5
aI53
aI101
aI85
aI70
aI118
aI38
aI22
aI10
aI58
aI106
aI90
aI73
aI121
aI41
aI25
aI15
aI63
aI111
aI95
aI76
aI124
aI44
aI28
aI20
aI36
aI116
aI68
aI87
aI103
aI55
aI7
aI17
aI33
aI113
aI65
aI82
aI98
aI50
aI2
aI30
aI46
aI126
aI78
aI93
aI109
aI61
aI13
aI27
aI43
aI123
aI75
aI88
aI104
aI56
aI8
aI40
aI24
aI72
aI120
aI107
aI91
aI11
aI59
aI45
aI29
aI77
aI125
aI110
aI94
aI14
aI62
aI34
aI18
aI66
aI114
aI97
aI81
aI1
aI49
aI39
aI23
aI71
aI119
aI100
aI84
aI4
aI52
aI60
aI12
aI92
aI108
aI127
aI79
aI31
aI47
aI57
aI9
aI89
aI105
aI122
aI74
aI26
aI42
aI54
aI6
aI86
aI102
aI117
aI69
aI21
aI37
aI51
aI3
aI83
aI99
aI112
aI64
aI16
aI32
aa(lp185
I0
aI49
aI98
aI83
aI71
aI118
aI37
aI20
aI13
aI60
aI111
aI94
aI74
aI123
aI40
aI25
aI26
aI43
aI120
aI73
aI93
aI108
aI63
aI14
aI23
aI38
aI117
aI68
aI80
aI97
aI50
aI3
aI52
aI5
aI86
aI103
aI115
aI66
aI17
aI32
aI57
aI8
aI91
aI106
aI126
aI79
aI28
aI45
aI46
aI31
aI76
aI125
aI105
aI88
aI11
aI58
aI35
aI18
aI65
aI112
aI100
aI85
aI6
aI55
aI104
aI89
aI10
aI59
aI47
aI30
aI77
aI124
aI101
aI84
aI7
aI54
aI34
aI19
aI64
aI113
aI114
aI67
aI16
aI33
aI53
aI4
aI87
aI102
aI127
aI78
aI29
aI44
aI56
aI9
aI90
aI107
aI92
aI109
aI62
aI15
aI27
aI42
aI121
aI72
aI81
aI96
aI51
aI2
aI22
aI39
aI116
aI69
aI70
aI119
aI36
aI21
aI1
aI48
aI99
aI82
aI75
aI122
aI41
aI24
aI12
aI61
aI110
aI95
aa(lp186
I0
aI50
aI100
aI86
aI75
aI121
aI47
aI29
aI21
aI39
aI113
aI67
aI94
aI108
aI58
aI8
aI42
aI24
aI78
aI124
aI97
aI83
aI5
aI55
aI63
aI13
aI91
aI105
aI116
aI70
aI16
aI34
aI84
aI102
aI48
aI2
aI31
aI45
aI123
aI73
aI65
aI115
aI37
aI23
aI10
aI56
aI110
aI92
aI126
aI76
aI26
aI40
aI53
aI7
aI81
aI99
aI107
aI89
aI15
aI61
aI32
aI18
aI68
aI118
aI43
aI25
aI79
aI125
aI96
aI82
aI4
aI54
aI62
aI12
aI90
aI104
aI117
aI71
aI17
aI35
aI1
aI51
aI101
aI87
aI74
aI120
aI46
aI28
aI20
aI38
aI112
aI66
aI95
aI109
aI59
aI9
aI127
aI77
aI27
aI41
aI52
aI6
aI80
aI98
aI106
aI88
aI14
aI60
aI33
aI19
aI69
aI119
aI85
aI103
aI49
aI3
aI30
aI44
aI122
aI72
aI64
aI114
aI36
aI22
aI11
aI57
aI111
aI93
aa(lp187
I0
aI51
aI102
aI85
aI79
aI124
aI41
aI26
aI29
aI46
aI123
aI72
aI82
aI97
aI52
aI7
aI58
aI9
aI92
aI111
aI117
aI70
aI19
aI32
aI39
aI20
aI65
aI114
aI104
aI91
aI14
aI61
aI116
aI71
aI18
aI33
aI59
aI8
aI93
aI110
aI105
aI90
aI15
aI60
aI38
aI21
aI64
aI115
aI78
aI125
aI40
aI27
aI1
aI50
aI103
aI84
aI83
aI96
aI53
aI6
aI28
aI47
aI122
aI73
aI107
aI88
aI13
aI62
aI36
aI23
aI66
aI113
aI118
aI69
aI16
aI35
aI57
aI10
aI95
aI108
aI81
aI98
aI55
aI4
aI30
aI45
aI120
aI75
aI76
aI127
aI42
aI25
aI3
aI48
aI101
aI86
aI31
aI44
aI121
aI74
aI80
aI99
aI54
aI5
aI2
aI49
aI100
aI87
aI77
aI126
aI43
aI24
aI37
aI22
aI67
aI112
aI106
aI89
aI12
aI63
aI56
aI11
aI94
aI109
aI119
aI68
aI17
aI34
aa(lp188
I0
aI52
aI104
aI92
aI83
aI103
aI59
aI15
aI37
aI17
aI77
aI121
aI118
aI66
aI30
aI42
aI74
aI126
aI34
aI22
aI25
aI45
aI113
aI69
aI111
aI91
aI7
aI51
aI60
aI8
aI84
aI96
aI23
aI35
aI127
aI75
aI68
aI112
aI44
aI24
aI50
aI6
aI90
aI110
aI97
aI85
aI9
aI61
aI93
aI105
aI53
aI1
aI14
aI58
aI102
aI82
aI120
aI76
aI16
aI36
aI43
aI31
aI67
aI119
aI46
aI26
aI70
aI114
aI125
aI73
aI21
aI33
aI11
aI63
aI99
aI87
aI88
aI108
aI48
aI4
aI100
aI80
aI12
aI56
aI55
aI3
aI95
aI107
aI65
aI117
aI41
aI29
aI18
aI38
aI122
aI78
aI57
aI13
aI81
aI101
aI106
aI94
aI2
aI54
aI28
aI40
aI116
aI64
aI79
aI123
aI39
aI19
aI115
aI71
aI27
aI47
aI32
aI20
aI72
aI124
aI86
aI98
aI62
aI10
aI5
aI49
aI109
aI89
aa(lp189
I0
aI53
aI106
aI95
aI87
aI98
aI61
aI8
aI45
aI24
aI71
aI114
aI122
aI79
aI16
aI37
aI90
aI111
aI48
aI5
aI13
aI56
aI103
aI82
aI119
aI66
aI29
aI40
aI32
aI21
aI74
aI127
aI55
aI2
aI93
aI104
aI96
aI85
aI10
aI63
aI26
aI47
aI112
aI69
aI77
aI120
aI39
aI18
aI109
aI88
aI7
aI50
aI58
aI15
aI80
aI101
aI64
aI117
aI42
aI31
aI23
aI34
aI125
aI72
aI110
aI91
aI4
aI49
aI57
aI12
aI83
aI102
aI67
aI118
aI41
aI28
aI20
aI33
aI126
aI75
aI52
aI1
aI94
aI107
aI99
aI86
aI9
aI60
aI25
aI44
aI115
aI70
aI78
aI123
aI36
aI17
aI89
aI108
aI51
aI6
aI14
aI59
aI100
aI81
aI116
aI65
aI30
aI43
aI35
aI22
aI73
aI124
aI3
aI54
aI105
aI92
aI84
aI97
aI62
aI11
aI46
aI27
aI68
aI113
aI121
aI76
aI19
aI38
aa(lp190
I0
aI54
aI108
aI90
aI91
aI109
aI55
aI1
aI53
aI3
aI89
aI111
aI110
aI88
aI2
aI52
aI106
aI92
aI6
aI48
aI49
aI7
aI93
aI107
aI95
aI105
aI51
aI5
aI4
aI50
aI104
aI94
aI87
aI97
aI59
aI13
aI12
aI58
aI96
aI86
aI98
aI84
aI14
aI56
aI57
aI15
aI85
aI99
aI61
aI11
aI81
aI103
aI102
aI80
aI10
aI60
aI8
aI62
aI100
aI82
aI83
aI101
aI63
aI9
aI45
aI27
aI65
aI119
aI118
aI64
aI26
aI44
aI24
aI46
aI116
aI66
aI67
aI117
aI47
aI25
aI71
aI113
aI43
aI29
aI28
aI42
aI112
aI70
aI114
aI68
aI30
aI40
aI41
aI31
aI69
aI115
aI122
aI76
aI22
aI32
aI33
aI23
aI77
aI123
aI79
aI121
aI35
aI21
aI20
aI34
aI120
aI78
aI16
aI38
aI124
aI74
aI75
aI125
aI39
aI17
aI37
aI19
aI73
aI127
aI126
aI72
aI18
aI36
aa(lp191
I0
aI55
aI110
aI89
aI95
aI104
aI49
aI6
aI61
aI10
aI83
aI100
aI98
aI85
aI12
aI59
aI122
aI77
aI20
aI35
aI37
aI18
aI75
aI124
aI71
aI112
aI41
aI30
aI24
aI47
aI118
aI65
aI119
aI64
aI25
aI46
aI40
aI31
aI70
aI113
aI74
aI125
aI36
aI19
aI21
aI34
aI123
aI76
aI13
aI58
aI99
aI84
aI82
aI101
aI60
aI11
aI48
aI7
aI94
aI105
aI111
aI88
aI1
aI54
aI109
aI90
aI3
aI52
aI50
aI5
aI92
aI107
aI80
aI103
aI62
aI9
aI15
aI56
aI97
aI86
aI23
aI32
aI121
aI78
aI72
aI127
aI38
aI17
aI42
aI29
aI68
aI115
aI117
aI66
aI27
aI44
aI26
aI45
aI116
aI67
aI69
aI114
aI43
aI28
aI39
aI16
aI73
aI126
aI120
aI79
aI22
aI33
aI96
aI87
aI14
aI57
aI63
aI8
aI81
aI102
aI93
aI106
aI51
aI4
aI2
aI53
aI108
aI91
aa(lp192
I0
aI56
aI112
aI72
aI99
aI91
aI19
aI43
aI69
aI125
aI53
aI13
aI38
aI30
aI86
aI110
aI9
aI49
aI121
aI65
aI106
aI82
aI26
aI34
aI76
aI116
aI60
aI4
aI47
aI23
aI95
aI103
aI18
aI42
aI98
aI90
aI113
aI73
aI1
aI57
aI87
aI111
aI39
aI31
aI52
aI12
aI68
aI124
aI27
aI35
aI107
aI83
aI120
aI64
aI8
aI48
aI94
aI102
aI46
aI22
aI61
aI5
aI77
aI117
aI36
aI28
aI84
aI108
aI71
aI127
aI55
aI15
aI97
aI89
aI17
aI41
aI2
aI58
aI114
aI74
aI45
aI21
aI93
aI101
aI78
aI118
aI62
aI6
aI104
aI80
aI24
aI32
aI11
aI51
aI123
aI67
aI54
aI14
aI70
aI126
aI85
aI109
aI37
aI29
aI115
aI75
aI3
aI59
aI16
aI40
aI96
aI88
aI63
aI7
aI79
aI119
aI92
aI100
aI44
aI20
aI122
aI66
aI10
aI50
aI25
aI33
aI105
aI81
aa(lp193
I0
aI57
aI114
aI75
aI103
aI94
aI21
aI44
aI77
aI116
aI63
aI6
aI42
aI19
aI88
aI97
aI25
aI32
aI107
aI82
aI126
aI71
aI12
aI53
aI84
aI109
aI38
aI31
aI51
aI10
aI65
aI120
aI50
aI11
aI64
aI121
aI85
aI108
aI39
aI30
aI127
aI70
aI13
aI52
aI24
aI33
aI106
aI83
aI43
aI18
aI89
aI96
aI76
aI117
aI62
aI7
aI102
aI95
aI20
aI45
aI1
aI56
aI115
aI74
aI100
aI93
aI22
aI47
aI3
aI58
aI113
aI72
aI41
aI16
aI91
aI98
aI78
aI119
aI60
aI5
aI125
aI68
aI15
aI54
aI26
aI35
aI104
aI81
aI48
aI9
aI66
aI123
aI87
aI110
aI37
aI28
aI86
aI111
aI36
aI29
aI49
aI8
aI67
aI122
aI27
aI34
aI105
aI80
aI124
aI69
aI14
aI55
aI79
aI118
aI61
aI4
aI40
aI17
aI90
aI99
aI2
aI59
aI112
aI73
aI101
aI92
aI23
aI46
aa(lp194
I0
aI58
aI116
aI78
aI107
aI81
aI31
aI37
aI85
aI111
aI33
aI27
aI62
aI4
aI74
aI112
aI41
aI19
aI93
aI103
aI66
aI120
aI54
aI12
aI124
aI70
aI8
aI50
aI23
aI45
aI99
aI89
aI82
aI104
aI38
aI28
aI57
aI3
aI77
aI119
aI7
aI61
aI115
aI73
aI108
aI86
aI24
aI34
aI123
aI65
aI15
aI53
aI16
aI42
aI100
aI94
aI46
aI20
aI90
aI96
aI69
aI127
aI49
aI11
aI39
aI29
aI83
aI105
aI76
aI118
aI56
aI2
aI114
aI72
aI6
aI60
aI25
aI35
aI109
aI87
aI14
aI52
aI122
aI64
aI101
aI95
aI17
aI43
aI91
aI97
aI47
aI21
aI48
aI10
aI68
aI126
aI117
aI79
aI1
aI59
aI30
aI36
aI106
aI80
aI32
aI26
aI84
aI110
aI75
aI113
aI63
aI5
aI92
aI102
aI40
aI18
aI55
aI13
aI67
aI121
aI9
aI51
aI125
aI71
aI98
aI88
aI22
aI44
aa(lp195
I0
aI59
aI118
aI77
aI111
aI84
aI25
aI34
aI93
aI102
aI43
aI16
aI50
aI9
aI68
aI127
aI57
aI2
aI79
aI116
aI86
aI109
aI32
aI27
aI100
aI95
aI18
aI41
aI11
aI48
aI125
aI70
aI114
aI73
aI4
aI63
aI29
aI38
aI107
aI80
aI47
aI20
aI89
aI98
aI64
aI123
aI54
aI13
aI75
aI112
aI61
aI6
aI36
aI31
aI82
aI105
aI22
aI45
aI96
aI91
aI121
aI66
aI15
aI52
aI103
aI92
aI17
aI42
aI8
aI51
aI126
aI69
aI58
aI1
aI76
aI119
aI85
aI110
aI35
aI24
aI94
aI101
aI40
aI19
aI49
aI10
aI71
aI124
aI3
aI56
aI117
aI78
aI108
aI87
aI26
aI33
aI21
aI46
aI99
aI88
aI122
aI65
aI12
aI55
aI72
aI115
aI62
aI5
aI39
aI28
aI81
aI106
aI44
aI23
aI90
aI97
aI67
aI120
aI53
aI14
aI113
aI74
aI7
aI60
aI30
aI37
aI104
aI83
aa(lp196
I0
aI60
aI120
aI68
aI115
aI79
aI11
aI55
aI101
aI89
aI29
aI33
aI22
aI42
aI110
aI82
aI73
aI117
aI49
aI13
aI58
aI6
aI66
aI126
aI44
aI16
aI84
aI104
aI95
aI99
aI39
aI27
aI17
aI45
aI105
aI85
aI98
aI94
aI26
aI38
aI116
aI72
aI12
aI48
aI7
aI59
aI127
aI67
aI88
aI100
aI32
aI28
aI43
aI23
aI83
aI111
aI61
aI1
aI69
aI121
aI78
aI114
aI54
aI10
aI34
aI30
aI90
aI102
aI81
aI109
aI41
aI21
aI71
aI123
aI63
aI3
aI52
aI8
aI76
aI112
aI107
aI87
aI19
aI47
aI24
aI36
aI96
aI92
aI14
aI50
aI118
aI74
aI125
aI65
aI5
aI57
aI51
aI15
aI75
aI119
aI64
aI124
aI56
aI4
aI86
aI106
aI46
aI18
aI37
aI25
aI93
aI97
aI122
aI70
aI2
aI62
aI9
aI53
aI113
aI77
aI31
aI35
aI103
aI91
aI108
aI80
aI20
aI40
aa(lp197
I0
aI61
aI122
aI71
aI119
aI74
aI13
aI48
aI109
aI80
aI23
aI42
aI26
aI39
aI96
aI93
aI89
aI100
aI35
aI30
aI46
aI19
aI84
aI105
aI52
aI9
aI78
aI115
aI67
aI126
aI57
aI4
aI49
aI12
aI75
aI118
aI70
aI123
aI60
aI1
aI92
aI97
aI38
aI27
aI43
aI22
aI81
aI108
aI104
aI85
aI18
aI47
aI31
aI34
aI101
aI88
aI5
aI56
aI127
aI66
aI114
aI79
aI8
aI53
aI98
aI95
aI24
aI37
aI21
aI40
aI111
aI82
aI15
aI50
aI117
aI72
aI120
aI69
aI2
aI63
aI59
aI6
aI65
aI124
aI76
aI113
aI54
aI11
aI86
aI107
aI44
aI17
aI33
aI28
aI91
aI102
aI83
aI110
aI41
aI20
aI36
aI25
aI94
aI99
aI62
aI3
aI68
aI121
aI73
aI116
aI51
aI14
aI10
aI55
aI112
aI77
aI125
aI64
aI7
aI58
aI103
aI90
aI29
aI32
aI16
aI45
aI106
aI87
aa(lp198
I0
aI62
aI124
aI66
aI123
aI69
aI7
aI57
aI117
aI75
aI9
aI55
aI14
aI48
aI114
aI76
aI105
aI87
aI21
aI43
aI18
aI44
aI110
aI80
aI28
aI34
aI96
aI94
aI103
aI89
aI27
aI37
aI81
aI111
aI45
aI19
aI42
aI20
aI86
aI104
aI36
aI26
aI88
aI102
aI95
aI97
aI35
aI29
aI56
aI6
aI68
aI122
aI67
aI125
aI63
aI1
aI77
aI115
aI49
aI15
aI54
aI8
aI74
aI116
aI33
aI31
aI93
aI99
aI90
aI100
aI38
aI24
aI84
aI106
aI40
aI22
aI47
aI17
aI83
aI109
aI72
aI118
aI52
aI10
aI51
aI13
aI79
aI113
aI61
aI3
aI65
aI127
aI70
aI120
aI58
aI4
aI112
aI78
aI12
aI50
aI11
aI53
aI119
aI73
aI5
aI59
aI121
aI71
aI126
aI64
aI2
aI60
aI25
aI39
aI101
aI91
aI98
aI92
aI30
aI32
aI108
aI82
aI16
aI46
aI23
aI41
aI107
aI85
aa(lp199
I0
aI63
aI126
aI65
aI127
aI64
aI1
aI62
aI125
aI66
aI3
aI60
aI2
aI61
aI124
aI67
aI121
aI70
aI7
aI56
aI6
aI57
aI120
aI71
aI4
aI59
aI122
aI69
aI123
aI68
aI5
aI58
aI113
aI78
aI15
aI48
aI14
aI49
aI112
aI79
aI12
aI51
aI114
aI77
aI115
aI76
aI13
aI50
aI8
aI55
aI118
aI73
aI119
aI72
aI9
aI54
aI117
aI74
aI11
aI52
aI10
aI53
aI116
aI75
aI97
aI94
aI31
aI32
aI30
aI33
aI96
aI95
aI28
aI35
aI98
aI93
aI99
aI92
aI29
aI34
aI24
aI39
aI102
aI89
aI103
aI88
aI25
aI38
aI101
aI90
aI27
aI36
aI26
aI37
aI100
aI91
aI16
aI47
aI110
aI81
aI111
aI80
aI17
aI46
aI109
aI82
aI19
aI44
aI18
aI45
aI108
aI83
aI105
aI86
aI23
aI40
aI22
aI41
aI104
aI87
aI20
aI43
aI106
aI85
aI107
aI84
aI21
aI42
aa(lp200
I0
aI64
aI3
aI67
aI6
aI70
aI5
aI69
aI12
aI76
aI15
aI79
aI10
aI74
aI9
aI73
aI24
aI88
aI27
aI91
aI30
aI94
aI29
aI93
aI20
aI84
aI23
aI87
aI18
aI82
aI17
aI81
aI48
aI112
aI51
aI115
aI54
aI118
aI53
aI117
aI60
aI124
aI63
aI127
aI58
aI122
aI57
aI121
aI40
aI104
aI43
aI107
aI46
aI110
aI45
aI109
aI36
aI100
aI39
aI103
aI34
aI98
aI33
aI97
aI96
aI32
aI99
aI35
aI102
aI38
aI101
aI37
aI108
aI44
aI111
aI47
aI106
aI42
aI105
aI41
aI120
aI56
aI123
aI59
aI126
aI62
aI125
aI61
aI116
aI52
aI119
aI55
aI114
aI50
aI113
aI49
aI80
aI16
aI83
aI19
aI86
aI22
aI85
aI21
aI92
aI28
aI95
aI31
aI90
aI26
aI89
aI25
aI72
aI8
aI75
aI11
aI78
aI14
aI77
aI13
aI68
aI4
aI71
aI7
aI66
aI2
aI65
aI1
aa(lp201
I0
aI65
aI1
aI64
aI2
aI67
aI3
aI66
aI4
aI69
aI5
aI68
aI6
aI71
aI7
aI70
aI8
aI73
aI9
aI72
aI10
aI75
aI11
aI74
aI12
aI77
aI13
aI76
aI14
aI79
aI15
aI78
aI16
aI81
aI17
aI80
aI18
aI83
aI19
aI82
aI20
aI85
aI21
aI84
aI22
aI87
aI23
aI86
aI24
aI89
aI25
aI88
aI26
aI91
aI27
aI90
aI28
aI93
aI29
aI92
aI30
aI95
aI31
aI94
aI32
aI97
aI33
aI96
aI34
aI99
aI35
aI98
aI36
aI101
aI37
aI100
aI38
aI103
aI39
aI102
aI40
aI105
aI41
aI104
aI42
aI107
aI43
aI106
aI44
aI109
aI45
aI108
aI46
aI111
aI47
aI110
aI48
aI113
aI49
aI112
aI50
aI115
aI51
aI114
aI52
aI117
aI53
aI116
aI54
aI119
aI55
aI118
aI56
aI121
aI57
aI120
aI58
aI123
aI59
aI122
aI60
aI125
aI61
aI124
aI62
aI127
aI63
aI126
aa(lp202
I0
aI66
aI7
aI69
aI14
aI76
aI9
aI75
aI28
aI94
aI27
aI89
aI18
aI80
aI21
aI87
aI56
aI122
aI63
aI125
aI54
aI116
aI49
aI115
aI36
aI102
aI35
aI97
aI42
aI104
aI45
aI111
aI112
aI50
aI119
aI53
aI126
aI60
aI121
aI59
aI108
aI46
aI107
aI41
aI98
aI32
aI101
aI39
aI72
aI10
aI79
aI13
aI70
aI4
aI65
aI3
aI84
aI22
aI83
aI17
aI90
aI24
aI93
aI31
aI99
aI33
aI100
aI38
aI109
aI47
aI106
aI40
aI127
aI61
aI120
aI58
aI113
aI51
aI118
aI52
aI91
aI25
aI92
aI30
aI85
aI23
aI82
aI16
aI71
aI5
aI64
aI2
aI73
aI11
aI78
aI12
aI19
aI81
aI20
aI86
aI29
aI95
aI26
aI88
aI15
aI77
aI8
aI74
aI1
aI67
aI6
aI68
aI43
aI105
aI44
aI110
aI37
aI103
aI34
aI96
aI55
aI117
aI48
aI114
aI57
aI123
aI62
aI124
aa(lp203
I0
aI67
aI5
aI70
aI10
aI73
aI15
aI76
aI20
aI87
aI17
aI82
aI30
aI93
aI27
aI88
aI40
aI107
aI45
aI110
aI34
aI97
aI39
aI100
aI60
aI127
aI57
aI122
aI54
aI117
aI51
aI112
aI80
aI19
aI85
aI22
aI90
aI25
aI95
aI28
aI68
aI7
aI65
aI2
aI78
aI13
aI75
aI8
aI120
aI59
aI125
aI62
aI114
aI49
aI119
aI52
aI108
aI47
aI105
aI42
aI102
aI37
aI99
aI32
aI35
aI96
aI38
aI101
aI41
aI106
aI44
aI111
aI55
aI116
aI50
aI113
aI61
aI126
aI56
aI123
aI11
aI72
aI14
aI77
aI1
aI66
aI4
aI71
aI31
aI92
aI26
aI89
aI21
aI86
aI16
aI83
aI115
aI48
aI118
aI53
aI121
aI58
aI124
aI63
aI103
aI36
aI98
aI33
aI109
aI46
aI104
aI43
aI91
aI24
aI94
aI29
aI81
aI18
aI84
aI23
aI79
aI12
aI74
aI9
aI69
aI6
aI64
aI3
aa(lp204
I0
aI68
aI11
aI79
aI22
aI82
aI29
aI89
aI44
aI104
aI39
aI99
aI58
aI126
aI49
aI117
aI88
aI28
aI83
aI23
aI78
aI10
aI69
aI1
aI116
aI48
aI127
aI59
aI98
aI38
aI105
aI45
aI51
aI119
aI56
aI124
aI37
aI97
aI46
aI106
aI31
aI91
aI20
aI80
aI9
aI77
aI2
aI70
aI107
aI47
aI96
aI36
aI125
aI57
aI118
aI50
aI71
aI3
aI76
aI8
aI81
aI21
aI90
aI30
aI102
aI34
aI109
aI41
aI112
aI52
aI123
aI63
aI74
aI14
aI65
aI5
aI92
aI24
aI87
aI19
aI62
aI122
aI53
aI113
aI40
aI108
aI35
aI103
aI18
aI86
aI25
aI93
aI4
aI64
aI15
aI75
aI85
aI17
aI94
aI26
aI67
aI7
aI72
aI12
aI121
aI61
aI114
aI54
aI111
aI43
aI100
aI32
aI13
aI73
aI6
aI66
aI27
aI95
aI16
aI84
aI33
aI101
aI42
aI110
aI55
aI115
aI60
aI120
aa(lp205
I0
aI69
aI9
aI76
aI18
aI87
aI27
aI94
aI36
aI97
aI45
aI104
aI54
aI115
aI63
aI122
aI72
aI13
aI65
aI4
aI90
aI31
aI83
aI22
aI108
aI41
aI101
aI32
aI126
aI59
aI119
aI50
aI19
aI86
aI26
aI95
aI1
aI68
aI8
aI77
aI55
aI114
aI62
aI123
aI37
aI96
aI44
aI105
aI91
aI30
aI82
aI23
aI73
aI12
aI64
aI5
aI127
aI58
aI118
aI51
aI109
aI40
aI100
aI33
aI38
aI99
aI47
aI106
aI52
aI113
aI61
aI120
aI2
aI71
aI11
aI78
aI16
aI85
aI25
aI92
aI110
aI43
aI103
aI34
aI124
aI57
aI117
aI48
aI74
aI15
aI67
aI6
aI88
aI29
aI81
aI20
aI53
aI112
aI60
aI121
aI39
aI98
aI46
aI107
aI17
aI84
aI24
aI93
aI3
aI70
aI10
aI79
aI125
aI56
aI116
aI49
aI111
aI42
aI102
aI35
aI89
aI28
aI80
aI21
aI75
aI14
aI66
aI7
aa(lp206
I0
aI70
aI15
aI73
aI30
aI88
aI17
aI87
aI60
aI122
aI51
aI117
aI34
aI100
aI45
aI107
aI120
aI62
aI119
aI49
aI102
aI32
aI105
aI47
aI68
aI2
aI75
aI13
aI90
aI28
aI85
aI19
aI115
aI53
aI124
aI58
aI109
aI43
aI98
aI36
aI79
aI9
aI64
aI6
aI81
aI23
aI94
aI24
aI11
aI77
aI4
aI66
aI21
aI83
aI26
aI92
aI55
aI113
aI56
aI126
aI41
aI111
aI38
aI96
aI101
aI35
aI106
aI44
aI123
aI61
aI116
aI50
aI89
aI31
aI86
aI16
aI71
aI1
aI72
aI14
aI29
aI91
aI18
aI84
aI3
aI69
aI12
aI74
aI33
aI103
aI46
aI104
aI63
aI121
aI48
aI118
aI22
aI80
aI25
aI95
aI8
aI78
aI7
aI65
aI42
aI108
aI37
aI99
aI52
aI114
aI59
aI125
aI110
aI40
aI97
aI39
aI112
aI54
aI127
aI57
aI82
aI20
aI93
aI27
aI76
aI10
aI67
aI5
aa(lp207
I0
aI71
aI13
aI74
aI26
aI93
aI23
aI80
aI52
aI115
aI57
aI126
aI46
aI105
aI35
aI100
aI104
aI47
aI101
aI34
aI114
aI53
aI127
aI56
aI92
aI27
aI81
aI22
aI70
aI1
aI75
aI12
aI83
aI20
aI94
aI25
aI73
aI14
aI68
aI3
aI103
aI32
aI106
aI45
aI125
aI58
aI112
aI55
aI59
aI124
aI54
aI113
aI33
aI102
aI44
aI107
aI15
aI72
aI2
aI69
aI21
aI82
aI24
aI95
aI37
aI98
aI40
aI111
aI63
aI120
aI50
aI117
aI17
aI86
aI28
aI91
aI11
aI76
aI6
aI65
aI77
aI10
aI64
aI7
aI87
aI16
aI90
aI29
aI121
aI62
aI116
aI51
aI99
aI36
aI110
aI41
aI118
aI49
aI123
aI60
aI108
aI43
aI97
aI38
aI66
aI5
aI79
aI8
aI88
aI31
aI85
aI18
aI30
aI89
aI19
aI84
aI4
aI67
aI9
aI78
aI42
aI109
aI39
aI96
aI48
aI119
aI61
aI122
aa(lp208
I0
aI72
aI19
aI91
aI38
aI110
aI53
aI125
aI76
aI4
aI95
aI23
aI106
aI34
aI121
aI49
aI27
aI83
aI8
aI64
aI61
aI117
aI46
aI102
aI87
aI31
aI68
aI12
aI113
aI57
aI98
aI42
aI54
aI126
aI37
aI109
aI16
aI88
aI3
aI75
aI122
aI50
aI105
aI33
aI92
aI20
aI79
aI7
aI45
aI101
aI62
aI118
aI11
aI67
aI24
aI80
aI97
aI41
aI114
aI58
aI71
aI15
aI84
aI28
aI108
aI36
aI127
aI55
aI74
aI2
aI89
aI17
aI32
aI104
aI51
aI123
aI6
aI78
aI21
aI93
aI119
aI63
aI100
aI44
aI81
aI25
aI66
aI10
aI59
aI115
aI40
aI96
aI29
aI85
aI14
aI70
aI90
aI18
aI73
aI1
aI124
aI52
aI111
aI39
aI22
aI94
aI5
aI77
aI48
aI120
aI35
aI107
aI65
aI9
aI82
aI26
aI103
aI47
aI116
aI60
aI13
aI69
aI30
aI86
aI43
aI99
aI56
aI112
aa(lp209
I0
aI73
aI17
aI88
aI34
aI107
aI51
aI122
aI68
aI13
aI85
aI28
aI102
aI47
aI119
aI62
aI11
aI66
aI26
aI83
aI41
aI96
aI56
aI113
aI79
aI6
aI94
aI23
aI109
aI36
aI124
aI53
aI22
aI95
aI7
aI78
aI52
aI125
aI37
aI108
aI82
aI27
aI67
aI10
aI112
aI57
aI97
aI40
aI29
aI84
aI12
aI69
aI63
aI118
aI46
aI103
aI89
aI16
aI72
aI1
aI123
aI50
aI106
aI35
aI44
aI101
aI61
aI116
aI14
aI71
aI31
aI86
aI104
aI33
aI121
aI48
aI74
aI3
aI91
aI18
aI39
aI110
aI54
aI127
aI5
aI76
aI20
aI93
aI99
aI42
aI114
aI59
aI65
aI8
aI80
aI25
aI58
aI115
aI43
aI98
aI24
aI81
aI9
aI64
aI126
aI55
aI111
aI38
aI92
aI21
aI77
aI4
aI49
aI120
aI32
aI105
aI19
aI90
aI2
aI75
aI117
aI60
aI100
aI45
aI87
aI30
aI70
aI15
aa(lp210
I0
aI74
aI23
aI93
aI46
aI100
aI57
aI115
aI92
aI22
aI75
aI1
aI114
aI56
aI101
aI47
aI59
aI113
aI44
aI102
aI21
aI95
aI2
aI72
aI103
aI45
aI112
aI58
aI73
aI3
aI94
aI20
aI118
aI60
aI97
aI43
aI88
aI18
aI79
aI5
aI42
aI96
aI61
aI119
aI4
aI78
aI19
aI89
aI77
aI7
aI90
aI16
aI99
aI41
aI116
aI62
aI17
aI91
aI6
aI76
aI63
aI117
aI40
aI98
aI111
aI37
aI120
aI50
aI65
aI11
aI86
aI28
aI51
aI121
aI36
aI110
aI29
aI87
aI10
aI64
aI84
aI30
aI67
aI9
aI122
aI48
aI109
aI39
aI8
aI66
aI31
aI85
aI38
aI108
aI49
aI123
aI25
aI83
aI14
aI68
aI55
aI125
aI32
aI106
aI69
aI15
aI82
aI24
aI107
aI33
aI124
aI54
aI34
aI104
aI53
aI127
aI12
aI70
aI27
aI81
aI126
aI52
aI105
aI35
aI80
aI26
aI71
aI13
aa(lp211
I0
aI75
aI21
aI94
aI42
aI97
aI63
aI116
aI84
aI31
aI65
aI10
aI126
aI53
aI107
aI32
aI43
aI96
aI62
aI117
aI1
aI74
aI20
aI95
aI127
aI52
aI106
aI33
aI85
aI30
aI64
aI11
aI86
aI29
aI67
aI8
aI124
aI55
aI105
aI34
aI2
aI73
aI23
aI92
aI40
aI99
aI61
aI118
aI125
aI54
aI104
aI35
aI87
aI28
aI66
aI9
aI41
aI98
aI60
aI119
aI3
aI72
aI22
aI93
aI47
aI100
aI58
aI113
aI5
aI78
aI16
aI91
aI123
aI48
aI110
aI37
aI81
aI26
aI68
aI15
aI4
aI79
aI17
aI90
aI46
aI101
aI59
aI112
aI80
aI27
aI69
aI14
aI122
aI49
aI111
aI36
aI121
aI50
aI108
aI39
aI83
aI24
aI70
aI13
aI45
aI102
aI56
aI115
aI7
aI76
aI18
aI89
aI82
aI25
aI71
aI12
aI120
aI51
aI109
aI38
aI6
aI77
aI19
aI88
aI44
aI103
aI57
aI114
aa(lp212
I0
aI76
aI27
aI87
aI54
aI122
aI45
aI97
aI108
aI32
aI119
aI59
aI90
aI22
aI65
aI13
aI91
aI23
aI64
aI12
aI109
aI33
aI118
aI58
aI55
aI123
aI44
aI96
aI1
aI77
aI26
aI86
aI53
aI121
aI46
aI98
aI3
aI79
aI24
aI84
aI89
aI21
aI66
aI14
aI111
aI35
aI116
aI56
aI110
aI34
aI117
aI57
aI88
aI20
aI67
aI15
aI2
aI78
aI25
aI85
aI52
aI120
aI47
aI99
aI106
aI38
aI113
aI61
aI92
aI16
aI71
aI11
aI6
aI74
aI29
aI81
aI48
aI124
aI43
aI103
aI49
aI125
aI42
aI102
aI7
aI75
aI28
aI80
aI93
aI17
aI70
aI10
aI107
aI39
aI112
aI60
aI95
aI19
aI68
aI8
aI105
aI37
aI114
aI62
aI51
aI127
aI40
aI100
aI5
aI73
aI30
aI82
aI4
aI72
aI31
aI83
aI50
aI126
aI41
aI101
aI104
aI36
aI115
aI63
aI94
aI18
aI69
aI9
aa(lp213
I0
aI77
aI25
aI84
aI50
aI127
aI43
aI102
aI100
aI41
aI125
aI48
aI86
aI27
aI79
aI2
aI75
aI6
aI82
aI31
aI121
aI52
aI96
aI45
aI47
aI98
aI54
aI123
aI29
aI80
aI4
aI73
aI21
aI88
aI12
aI65
aI39
aI106
aI62
aI115
aI113
aI60
aI104
aI37
aI67
aI14
aI90
aI23
aI94
aI19
aI71
aI10
aI108
aI33
aI117
aI56
aI58
aI119
aI35
aI110
aI8
aI69
aI17
aI92
aI42
aI103
aI51
aI126
aI24
aI85
aI1
aI76
aI78
aI3
aI87
aI26
aI124
aI49
aI101
aI40
aI97
aI44
aI120
aI53
aI83
aI30
aI74
aI7
aI5
aI72
aI28
aI81
aI55
aI122
aI46
aI99
aI63
aI114
aI38
aI107
aI13
aI64
aI20
aI89
aI91
aI22
aI66
aI15
aI105
aI36
aI112
aI61
aI116
aI57
aI109
aI32
aI70
aI11
aI95
aI18
aI16
aI93
aI9
aI68
aI34
aI111
aI59
aI118
aa(lp214
I0
aI78
aI31
aI81
aI62
aI112
aI33
aI111
aI124
aI50
aI99
aI45
aI66
aI12
aI93
aI19
aI123
aI53
aI100
aI42
aI69
aI11
aI90
aI20
aI7
aI73
aI24
aI86
aI57
aI119
aI38
aI104
aI117
aI59
aI106
aI36
aI75
aI5
aI84
aI26
aI9
aI71
aI22
aI88
aI55
aI121
aI40
aI102
aI14
aI64
aI17
aI95
aI48
aI126
aI47
aI97
aI114
aI60
aI109
aI35
aI76
aI2
aI83
aI29
aI105
aI39
aI118
aI56
aI87
aI25
aI72
aI6
aI21
aI91
aI10
aI68
aI43
aI101
aI52
aI122
aI18
aI92
aI13
aI67
aI44
aI98
aI51
aI125
aI110
aI32
aI113
aI63
aI80
aI30
aI79
aI1
aI28
aI82
aI3
aI77
aI34
aI108
aI61
aI115
aI96
aI46
aI127
aI49
aI94
aI16
aI65
aI15
aI103
aI41
aI120
aI54
aI89
aI23
aI70
aI8
aI27
aI85
aI4
aI74
aI37
aI107
aI58
aI116
aa(lp215
I0
aI79
aI29
aI82
aI58
aI117
aI39
aI104
aI116
aI59
aI105
aI38
aI78
aI1
aI83
aI28
aI107
aI36
aI118
aI57
aI81
aI30
aI76
aI3
aI31
aI80
aI2
aI77
aI37
aI106
aI56
aI119
aI85
aI26
aI72
aI7
aI111
aI32
aI114
aI61
aI33
aI110
aI60
aI115
aI27
aI84
aI6
aI73
aI62
aI113
aI35
aI108
aI4
aI75
aI25
aI86
aI74
aI5
aI87
aI24
aI112
aI63
aI109
aI34
aI41
aI102
aI52
aI123
aI19
aI92
aI14
aI65
aI93
aI18
aI64
aI15
aI103
aI40
aI122
aI53
aI66
aI13
aI95
aI16
aI120
aI55
aI101
aI42
aI54
aI121
aI43
aI100
aI12
aI67
aI17
aI94
aI124
aI51
aI97
aI46
aI70
aI9
aI91
aI20
aI8
aI71
aI21
aI90
aI50
aI125
aI47
aI96
aI23
aI88
aI10
aI69
aI45
aI98
aI48
aI127
aI99
aI44
aI126
aI49
aI89
aI22
aI68
aI11
aa(lp216
I0
aI80
aI35
aI115
aI70
aI22
aI101
aI53
aI15
aI95
aI44
aI124
aI73
aI25
aI106
aI58
aI30
aI78
aI61
aI109
aI88
aI8
aI123
aI43
aI17
aI65
aI50
aI98
aI87
aI7
aI116
aI36
aI60
aI108
aI31
aI79
aI122
aI42
aI89
aI9
aI51
aI99
aI16
aI64
aI117
aI37
aI86
aI6
aI34
aI114
aI1
aI81
aI100
aI52
aI71
aI23
aI45
aI125
aI14
aI94
aI107
aI59
aI72
aI24
aI120
aI40
aI91
aI11
aI62
aI110
aI29
aI77
aI119
aI39
aI84
aI4
aI49
aI97
aI18
aI66
aI102
aI54
aI69
aI21
aI32
aI112
aI3
aI83
aI105
aI57
aI74
aI26
aI47
aI127
aI12
aI92
aI68
aI20
aI103
aI55
aI2
aI82
aI33
aI113
aI75
aI27
aI104
aI56
aI13
aI93
aI46
aI126
aI90
aI10
aI121
aI41
aI28
aI76
aI63
aI111
aI85
aI5
aI118
aI38
aI19
aI67
aI48
aI96
aa(lp217
I0
aI81
aI33
aI112
aI66
aI19
aI99
aI50
aI7
aI86
aI38
aI119
aI69
aI20
aI100
aI53
aI14
aI95
aI47
aI126
aI76
aI29
aI109
aI60
aI9
aI88
aI40
aI121
aI75
aI26
aI106
aI59
aI28
aI77
aI61
aI108
aI94
aI15
aI127
aI46
aI27
aI74
aI58
aI107
aI89
aI8
aI120
aI41
aI18
aI67
aI51
aI98
aI80
aI1
aI113
aI32
aI21
aI68
aI52
aI101
aI87
aI6
aI118
aI39
aI56
aI105
aI25
aI72
aI122
aI43
aI91
aI10
aI63
aI110
aI30
aI79
aI125
aI44
aI92
aI13
aI54
aI103
aI23
aI70
aI116
aI37
aI85
aI4
aI49
aI96
aI16
aI65
aI115
aI34
aI82
aI3
aI36
aI117
aI5
aI84
aI102
aI55
aI71
aI22
aI35
aI114
aI2
aI83
aI97
aI48
aI64
aI17
aI42
aI123
aI11
aI90
aI104
aI57
aI73
aI24
aI45
aI124
aI12
aI93
aI111
aI62
aI78
aI31
aa(lp218
I0
aI82
aI39
aI117
aI78
aI28
aI105
aI59
aI31
aI77
aI56
aI106
aI81
aI3
aI118
aI36
aI62
aI108
aI25
aI75
aI112
aI34
aI87
aI5
aI33
aI115
aI6
aI84
aI111
aI61
aI72
aI26
aI124
aI46
aI91
aI9
aI50
aI96
aI21
aI71
aI99
aI49
aI68
aI22
aI45
aI127
aI10
aI88
aI66
aI16
aI101
aI55
aI12
aI94
aI43
aI121
aI93
aI15
aI122
aI40
aI19
aI65
aI52
aI102
aI123
aI41
aI92
aI14
aI53
aI103
aI18
aI64
aI100
aI54
aI67
aI17
aI42
aI120
aI13
aI95
aI69
aI23
aI98
aI48
aI11
aI89
aI44
aI126
aI90
aI8
aI125
aI47
aI20
aI70
aI51
aI97
aI7
aI85
aI32
aI114
aI73
aI27
aI110
aI60
aI24
aI74
aI63
aI109
aI86
aI4
aI113
aI35
aI57
aI107
aI30
aI76
aI119
aI37
aI80
aI2
aI38
aI116
aI1
aI83
aI104
aI58
aI79
aI29
aa(lp219
I0
aI83
aI37
aI118
aI74
aI25
aI111
aI60
aI23
aI68
aI50
aI97
aI93
aI14
aI120
aI43
aI46
aI125
aI11
aI88
aI100
aI55
aI65
aI18
aI57
aI106
aI28
aI79
aI115
aI32
aI86
aI5
aI92
aI15
aI121
aI42
aI22
aI69
aI51
aI96
aI75
aI24
aI110
aI61
aI1
aI82
aI36
aI119
aI114
aI33
aI87
aI4
aI56
aI107
aI29
aI78
aI101
aI54
aI64
aI19
aI47
aI124
aI10
aI89
aI59
aI104
aI30
aI77
aI113
aI34
aI84
aI7
aI44
aI127
aI9
aI90
aI102
aI53
aI67
aI16
aI21
aI70
aI48
aI99
aI95
aI12
aI122
aI41
aI2
aI81
aI39
aI116
aI72
aI27
aI109
aI62
aI103
aI52
aI66
aI17
aI45
aI126
aI8
aI91
aI112
aI35
aI85
aI6
aI58
aI105
aI31
aI76
aI73
aI26
aI108
aI63
aI3
aI80
aI38
aI117
aI94
aI13
aI123
aI40
aI20
aI71
aI49
aI98
aa(lp220
I0
aI84
aI43
aI127
aI86
aI2
aI125
aI41
aI47
aI123
aI4
aI80
aI121
aI45
aI82
aI6
aI94
aI10
aI117
aI33
aI8
aI92
aI35
aI119
aI113
aI37
aI90
aI14
aI39
aI115
aI12
aI88
aI63
aI107
aI20
aI64
aI105
aI61
aI66
aI22
aI16
aI68
aI59
aI111
aI70
aI18
aI109
aI57
aI97
aI53
aI74
aI30
aI55
aI99
aI28
aI72
aI78
aI26
aI101
aI49
aI24
aI76
aI51
aI103
aI126
aI42
aI85
aI1
aI40
aI124
aI3
aI87
aI81
aI5
aI122
aI46
aI7
aI83
aI44
aI120
aI32
aI116
aI11
aI95
aI118
aI34
aI93
aI9
aI15
aI91
aI36
aI112
aI89
aI13
aI114
aI38
aI65
aI21
aI106
aI62
aI23
aI67
aI60
aI104
aI110
aI58
aI69
aI17
aI56
aI108
aI19
aI71
aI31
aI75
aI52
aI96
aI73
aI29
aI98
aI54
aI48
aI100
aI27
aI79
aI102
aI50
aI77
aI25
aa(lp221
I0
aI85
aI41
aI124
aI82
aI7
aI123
aI46
aI39
aI114
aI14
aI91
aI117
aI32
aI92
aI9
aI78
aI27
aI103
aI50
aI28
aI73
aI53
aI96
aI105
aI60
aI64
aI21
aI59
aI110
aI18
aI71
aI31
aI74
aI54
aI99
aI77
aI24
aI100
aI49
aI56
aI109
aI17
aI68
aI106
aI63
aI67
aI22
aI81
aI4
aI120
aI45
aI3
aI86
aI42
aI127
aI118
aI35
aI95
aI10
aI36
aI113
aI13
aI88
aI62
aI107
aI23
aI66
aI108
aI57
aI69
aI16
aI25
aI76
aI48
aI101
aI75
aI30
aI98
aI55
aI112
aI37
aI89
aI12
aI34
aI119
aI11
aI94
aI87
aI2
aI126
aI43
aI5
aI80
aI44
aI121
aI33
aI116
aI8
aI93
aI115
aI38
aI90
aI15
aI6
aI83
aI47
aI122
aI84
aI1
aI125
aI40
aI111
aI58
aI70
aI19
aI61
aI104
aI20
aI65
aI72
aI29
aI97
aI52
aI26
aI79
aI51
aI102
aa(lp222
I0
aI86
aI47
aI121
aI94
aI8
aI113
aI39
aI63
aI105
aI16
aI70
aI97
aI55
aI78
aI24
aI126
aI40
aI81
aI7
aI32
aI118
aI15
aI89
aI65
aI23
aI110
aI56
aI31
aI73
aI48
aI102
aI127
aI41
aI80
aI6
aI33
aI119
aI14
aI88
aI64
aI22
aI111
aI57
aI30
aI72
aI49
aI103
aI1
aI87
aI46
aI120
aI95
aI9
aI112
aI38
aI62
aI104
aI17
aI71
aI96
aI54
aI79
aI25
aI125
aI43
aI82
aI4
aI35
aI117
aI12
aI90
aI66
aI20
aI109
aI59
aI28
aI74
aI51
aI101
aI3
aI85
aI44
aI122
aI93
aI11
aI114
aI36
aI60
aI106
aI19
aI69
aI98
aI52
aI77
aI27
aI2
aI84
aI45
aI123
aI92
aI10
aI115
aI37
aI61
aI107
aI18
aI68
aI99
aI53
aI76
aI26
aI124
aI42
aI83
aI5
aI34
aI116
aI13
aI91
aI67
aI21
aI108
aI58
aI29
aI75
aI50
aI100
aa(lp223
I0
aI87
aI45
aI122
aI90
aI13
aI119
aI32
aI55
aI96
aI26
aI77
aI109
aI58
aI64
aI23
aI110
aI57
aI67
aI20
aI52
aI99
aI25
aI78
aI89
aI14
aI116
aI35
aI3
aI84
aI46
aI121
aI95
aI8
aI114
aI37
aI5
aI82
aI40
aI127
aI104
aI63
aI69
aI18
aI50
aI101
aI31
aI72
aI49
aI102
aI28
aI75
aI107
aI60
aI70
aI17
aI6
aI81
aI43
aI124
aI92
aI11
aI113
aI38
aI61
aI106
aI16
aI71
aI103
aI48
aI74
aI29
aI10
aI93
aI39
aI112
aI80
aI7
aI125
aI42
aI83
aI4
aI126
aI41
aI9
aI94
aI36
aI115
aI100
aI51
aI73
aI30
aI62
aI105
aI19
aI68
aI98
aI53
aI79
aI24
aI56
aI111
aI21
aI66
aI85
aI2
aI120
aI47
aI15
aI88
aI34
aI117
aI12
aI91
aI33
aI118
aI86
aI1
aI123
aI44
aI59
aI108
aI22
aI65
aI97
aI54
aI76
aI27
aa(lp224
I0
aI88
aI51
aI107
aI102
aI62
aI85
aI13
aI79
aI23
aI124
aI36
aI41
aI113
aI26
aI66
aI29
aI69
aI46
aI118
aI123
aI35
aI72
aI16
aI82
aI10
aI97
aI57
aI52
aI108
aI7
aI95
aI58
aI98
aI9
aI81
aI92
aI4
aI111
aI55
aI117
aI45
aI70
aI30
aI19
aI75
aI32
aI120
aI39
aI127
aI20
aI76
aI65
aI25
aI114
aI42
aI104
aI48
aI91
aI3
aI14
aI86
aI61
aI101
aI116
aI44
aI71
aI31
aI18
aI74
aI33
aI121
aI59
aI99
aI8
aI80
aI93
aI5
aI110
aI54
aI105
aI49
aI90
aI2
aI15
aI87
aI60
aI100
aI38
aI126
aI21
aI77
aI64
aI24
aI115
aI43
aI78
aI22
aI125
aI37
aI40
aI112
aI27
aI67
aI1
aI89
aI50
aI106
aI103
aI63
aI84
aI12
aI83
aI11
aI96
aI56
aI53
aI109
aI6
aI94
aI28
aI68
aI47
aI119
aI122
aI34
aI73
aI17
aa(lp225
I0
aI89
aI49
aI104
aI98
aI59
aI83
aI10
aI71
aI30
aI118
aI47
aI37
aI124
aI20
aI77
aI13
aI84
aI60
aI101
aI111
aI54
aI94
aI7
aI74
aI19
aI123
aI34
aI40
aI113
aI25
aI64
aI26
aI67
aI43
aI114
aI120
aI33
aI73
aI16
aI93
aI4
aI108
aI53
aI63
aI102
aI14
aI87
aI23
aI78
aI38
aI127
aI117
aI44
aI68
aI29
aI80
aI9
aI97
aI56
aI50
aI107
aI3
aI90
aI52
aI109
aI5
aI92
aI86
aI15
aI103
aI62
aI115
aI42
aI66
aI27
aI17
aI72
aI32
aI121
aI57
aI96
aI8
aI81
aI91
aI2
aI106
aI51
aI126
aI39
aI79
aI22
aI28
aI69
aI45
aI116
aI46
aI119
aI31
aI70
aI76
aI21
aI125
aI36
aI105
aI48
aI88
aI1
aI11
aI82
aI58
aI99
aI35
aI122
aI18
aI75
aI65
aI24
aI112
aI41
aI100
aI61
aI85
aI12
aI6
aI95
aI55
aI110
aa(lp226
I0
aI90
aI55
aI109
aI110
aI52
aI89
aI3
aI95
aI5
aI104
aI50
aI49
aI107
aI6
aI92
aI61
aI103
aI10
aI80
aI83
aI9
aI100
aI62
aI98
aI56
aI85
aI15
aI12
aI86
aI59
aI97
aI122
aI32
aI77
aI23
aI20
aI78
aI35
aI121
aI37
aI127
aI18
aI72
aI75
aI17
aI124
aI38
aI71
aI29
aI112
aI42
aI41
aI115
aI30
aI68
aI24
aI66
aI47
aI117
aI118
aI44
aI65
aI27
aI119
aI45
aI64
aI26
aI25
aI67
aI46
aI116
aI40
aI114
aI31
aI69
aI70
aI28
aI113
aI43
aI74
aI16
aI125
aI39
aI36
aI126
aI19
aI73
aI21
aI79
aI34
aI120
aI123
aI33
aI76
aI22
aI13
aI87
aI58
aI96
aI99
aI57
aI84
aI14
aI82
aI8
aI101
aI63
aI60
aI102
aI11
aI81
aI48
aI106
aI7
aI93
aI94
aI4
aI105
aI51
aI111
aI53
aI88
aI2
aI1
aI91
aI54
aI108
aa(lp227
I0
aI91
aI53
aI110
aI106
aI49
aI95
aI4
aI87
aI12
aI98
aI57
aI61
aI102
aI8
aI83
aI45
aI118
aI24
aI67
aI71
aI28
aI114
aI41
aI122
aI33
aI79
aI20
aI16
aI75
aI37
aI126
aI90
aI1
aI111
aI52
aI48
aI107
aI5
aI94
aI13
aI86
aI56
aI99
aI103
aI60
aI82
aI9
aI119
aI44
aI66
aI25
aI29
aI70
aI40
aI115
aI32
aI123
aI21
aI78
aI74
aI17
aI127
aI36
aI55
aI108
aI2
aI89
aI93
aI6
aI104
aI51
aI96
aI59
aI85
aI14
aI10
aI81
aI63
aI100
aI26
aI65
aI47
aI116
aI112
aI43
aI69
aI30
aI77
aI22
aI120
aI35
aI39
aI124
aI18
aI73
aI109
aI54
aI88
aI3
aI7
aI92
aI50
aI105
aI58
aI97
aI15
aI84
aI80
aI11
aI101
aI62
aI64
aI27
aI117
aI46
aI42
aI113
aI31
aI68
aI23
aI76
aI34
aI121
aI125
aI38
aI72
aI19
aa(lp228
I0
aI92
aI59
aI103
aI118
aI42
aI77
aI17
aI111
aI51
aI84
aI8
aI25
aI69
aI34
aI126
aI93
aI1
aI102
aI58
aI43
aI119
aI16
aI76
aI50
aI110
aI9
aI85
aI68
aI24
aI127
aI35
aI57
aI101
aI2
aI94
aI79
aI19
aI116
aI40
aI86
aI10
aI109
aI49
aI32
aI124
aI27
aI71
aI100
aI56
aI95
aI3
aI18
aI78
aI41
aI117
aI11
aI87
aI48
aI108
aI125
aI33
aI70
aI26
aI114
aI46
aI73
aI21
aI4
aI88
aI63
aI99
aI29
aI65
aI38
aI122
aI107
aI55
aI80
aI12
aI47
aI115
aI20
aI72
aI89
aI5
aI98
aI62
aI64
aI28
aI123
aI39
aI54
aI106
aI13
aI81
aI75
aI23
aI112
aI44
aI61
aI97
aI6
aI90
aI36
aI120
aI31
aI67
aI82
aI14
aI105
aI53
aI22
aI74
aI45
aI113
aI96
aI60
aI91
aI7
aI121
aI37
aI66
aI30
aI15
aI83
aI52
aI104
aa(lp229
I0
aI93
aI57
aI100
aI114
aI47
aI75
aI22
aI103
aI58
aI94
aI3
aI21
aI72
aI44
aI113
aI77
aI16
aI116
aI41
aI63
aI98
aI6
aI91
aI42
aI119
aI19
aI78
aI88
aI5
aI97
aI60
aI25
aI68
aI32
aI125
aI107
aI54
aI82
aI15
aI126
aI35
aI71
aI26
aI12
aI81
aI53
aI104
aI84
aI9
aI109
aI48
aI38
aI123
aI31
aI66
aI51
aI110
aI10
aI87
aI65
aI28
aI120
aI37
aI50
aI111
aI11
aI86
aI64
aI29
aI121
aI36
aI85
aI8
aI108
aI49
aI39
aI122
aI30
aI67
aI127
aI34
aI70
aI27
aI13
aI80
aI52
aI105
aI24
aI69
aI33
aI124
aI106
aI55
aI83
aI14
aI43
aI118
aI18
aI79
aI89
aI4
aI96
aI61
aI76
aI17
aI117
aI40
aI62
aI99
aI7
aI90
aI102
aI59
aI95
aI2
aI20
aI73
aI45
aI112
aI1
aI92
aI56
aI101
aI115
aI46
aI74
aI23
aa(lp230
I0
aI94
aI63
aI97
aI126
aI32
aI65
aI31
aI127
aI33
aI64
aI30
aI1
aI95
aI62
aI96
aI125
aI35
aI66
aI28
aI3
aI93
aI60
aI98
aI2
aI92
aI61
aI99
aI124
aI34
aI67
aI29
aI121
aI39
aI70
aI24
aI7
aI89
aI56
aI102
aI6
aI88
aI57
aI103
aI120
aI38
aI71
aI25
aI4
aI90
aI59
aI101
aI122
aI36
aI69
aI27
aI123
aI37
aI68
aI26
aI5
aI91
aI58
aI100
aI113
aI47
aI78
aI16
aI15
aI81
aI48
aI110
aI14
aI80
aI49
aI111
aI112
aI46
aI79
aI17
aI12
aI82
aI51
aI109
aI114
aI44
aI77
aI19
aI115
aI45
aI76
aI18
aI13
aI83
aI50
aI108
aI8
aI86
aI55
aI105
aI118
aI40
aI73
aI23
aI119
aI41
aI72
aI22
aI9
aI87
aI54
aI104
aI117
aI43
aI74
aI20
aI11
aI85
aI52
aI106
aI10
aI84
aI53
aI107
aI116
aI42
aI75
aI21
aa(lp231
I0
aI95
aI61
aI98
aI122
aI37
aI71
aI24
aI119
aI40
aI74
aI21
aI13
aI82
aI48
aI111
aI109
aI50
aI80
aI15
aI23
aI72
aI42
aI117
aI26
aI69
aI39
aI120
aI96
aI63
aI93
aI2
aI89
aI6
aI100
aI59
aI35
aI124
aI30
aI65
aI46
aI113
aI19
aI76
aI84
aI11
aI105
aI54
aI52
aI107
aI9
aI86
aI78
aI17
aI115
aI44
aI67
aI28
aI126
aI33
aI57
aI102
aI4
aI91
aI49
aI110
aI12
aI83
aI75
aI20
aI118
aI41
aI70
aI25
aI123
aI36
aI60
aI99
aI1
aI94
aI92
aI3
aI97
aI62
aI38
aI121
aI27
aI68
aI43
aI116
aI22
aI73
aI81
aI14
aI108
aI51
aI104
aI55
aI85
aI10
aI18
aI77
aI47
aI112
aI31
aI64
aI34
aI125
aI101
aI58
aI88
aI7
aI5
aI90
aI56
aI103
aI127
aI32
aI66
aI29
aI114
aI45
aI79
aI16
aI8
aI87
aI53
aI106
aa(lp232
I0
aI96
aI67
aI35
aI5
aI101
aI70
aI38
aI10
aI106
aI73
aI41
aI15
aI111
aI76
aI44
aI20
aI116
aI87
aI55
aI17
aI113
aI82
aI50
aI30
aI126
aI93
aI61
aI27
aI123
aI88
aI56
aI40
aI72
aI107
aI11
aI45
aI77
aI110
aI14
aI34
aI66
aI97
aI1
aI39
aI71
aI100
aI4
aI60
aI92
aI127
aI31
aI57
aI89
aI122
aI26
aI54
aI86
aI117
aI21
aI51
aI83
aI112
aI16
aI80
aI48
aI19
aI115
aI85
aI53
aI22
aI118
aI90
aI58
aI25
aI121
aI95
aI63
aI28
aI124
aI68
aI36
aI7
aI103
aI65
aI33
aI2
aI98
aI78
aI46
aI13
aI109
aI75
aI43
aI8
aI104
aI120
aI24
aI59
aI91
aI125
aI29
aI62
aI94
aI114
aI18
aI49
aI81
aI119
aI23
aI52
aI84
aI108
aI12
aI47
aI79
aI105
aI9
aI42
aI74
aI102
aI6
aI37
aI69
aI99
aI3
aI32
aI64
aa(lp233
I0
aI97
aI65
aI32
aI1
aI96
aI64
aI33
aI2
aI99
aI67
aI34
aI3
aI98
aI66
aI35
aI4
aI101
aI69
aI36
aI5
aI100
aI68
aI37
aI6
aI103
aI71
aI38
aI7
aI102
aI70
aI39
aI8
aI105
aI73
aI40
aI9
aI104
aI72
aI41
aI10
aI107
aI75
aI42
aI11
aI106
aI74
aI43
aI12
aI109
aI77
aI44
aI13
aI108
aI76
aI45
aI14
aI111
aI79
aI46
aI15
aI110
aI78
aI47
aI16
aI113
aI81
aI48
aI17
aI112
aI80
aI49
aI18
aI115
aI83
aI50
aI19
aI114
aI82
aI51
aI20
aI117
aI85
aI52
aI21
aI116
aI84
aI53
aI22
aI119
aI87
aI54
aI23
aI118
aI86
aI55
aI24
aI121
aI89
aI56
aI25
aI120
aI88
aI57
aI26
aI123
aI91
aI58
aI27
aI122
aI90
aI59
aI28
aI125
aI93
aI60
aI29
aI124
aI92
aI61
aI30
aI127
aI95
aI62
aI31
aI126
aI94
aI63
aa(lp234
I0
aI98
aI71
aI37
aI13
aI111
aI74
aI40
aI26
aI120
aI93
aI63
aI23
aI117
aI80
aI50
aI52
aI86
aI115
aI17
aI57
aI91
aI126
aI28
aI46
aI76
aI105
aI11
aI35
aI65
aI100
aI6
aI104
aI10
aI47
aI77
aI101
aI7
aI34
aI64
aI114
aI16
aI53
aI87
aI127
aI29
aI56
aI90
aI92
aI62
aI27
aI121
aI81
aI51
aI22
aI116
aI70
aI36
aI1
aI99
aI75
aI41
aI12
aI110
aI83
aI49
aI20
aI118
aI94
aI60
aI25
aI123
aI73
aI43
aI14
aI108
aI68
aI38
aI3
aI97
aI103
aI5
aI32
aI66
aI106
aI8
aI45
aI79
aI125
aI31
aI58
aI88
aI112
aI18
aI55
aI85
aI59
aI89
aI124
aI30
aI54
aI84
aI113
aI19
aI33
aI67
aI102
aI4
aI44
aI78
aI107
aI9
aI15
aI109
aI72
aI42
aI2
aI96
aI69
aI39
aI21
aI119
aI82
aI48
aI24
aI122
aI95
aI61
aa(lp235
I0
aI99
aI69
aI38
aI9
aI106
aI76
aI47
aI18
aI113
aI87
aI52
aI27
aI120
aI94
aI61
aI36
aI71
aI97
aI2
aI45
aI78
aI104
aI11
aI54
aI85
aI115
aI16
aI63
aI92
aI122
aI25
aI72
aI43
aI13
aI110
aI65
aI34
aI4
aI103
aI90
aI57
aI31
aI124
aI83
aI48
aI22
aI117
aI108
aI15
aI41
aI74
aI101
aI6
aI32
aI67
aI126
aI29
aI59
aI88
aI119
aI20
aI50
aI81
aI19
aI112
aI86
aI53
aI26
aI121
aI95
aI60
aI1
aI98
aI68
aI39
aI8
aI107
aI77
aI46
aI55
aI84
aI114
aI17
aI62
aI93
aI123
aI24
aI37
aI70
aI96
aI3
aI44
aI79
aI105
aI10
aI91
aI56
aI30
aI125
aI82
aI49
aI23
aI116
aI73
aI42
aI12
aI111
aI64
aI35
aI5
aI102
aI127
aI28
aI58
aI89
aI118
aI21
aI51
aI80
aI109
aI14
aI40
aI75
aI100
aI7
aI33
aI66
aa(lp236
I0
aI100
aI75
aI47
aI21
aI113
aI94
aI58
aI42
aI78
aI97
aI5
aI63
aI91
aI116
aI16
aI84
aI48
aI31
aI123
aI65
aI37
aI10
aI110
aI126
aI26
aI53
aI81
aI107
aI15
aI32
aI68
aI43
aI79
aI96
aI4
aI62
aI90
aI117
aI17
aI1
aI101
aI74
aI46
aI20
aI112
aI95
aI59
aI127
aI27
aI52
aI80
aI106
aI14
aI33
aI69
aI85
aI49
aI30
aI122
aI64
aI36
aI11
aI111
aI86
aI50
aI29
aI121
aI67
aI39
aI8
aI108
aI124
aI24
aI55
aI83
aI105
aI13
aI34
aI70
aI2
aI102
aI73
aI45
aI23
aI115
aI92
aI56
aI40
aI76
aI99
aI7
aI61
aI89
aI118
aI18
aI125
aI25
aI54
aI82
aI104
aI12
aI35
aI71
aI87
aI51
aI28
aI120
aI66
aI38
aI9
aI109
aI41
aI77
aI98
aI6
aI60
aI88
aI119
aI19
aI3
aI103
aI72
aI44
aI22
aI114
aI93
aI57
aa(lp237
I0
aI101
aI73
aI44
aI17
aI116
aI88
aI61
aI34
aI71
aI107
aI14
aI51
aI86
aI122
aI31
aI68
aI33
aI13
aI104
aI85
aI48
aI28
aI121
aI102
aI3
aI47
aI74
aI119
aI18
aI62
aI91
aI11
aI110
aI66
aI39
aI26
aI127
aI83
aI54
aI41
aI76
aI96
aI5
aI56
aI93
aI113
aI20
aI79
aI42
aI6
aI99
aI94
aI59
aI23
aI114
aI109
aI8
aI36
aI65
aI124
aI25
aI53
aI80
aI22
aI115
aI95
aI58
aI7
aI98
aI78
aI43
aI52
aI81
aI125
aI24
aI37
aI64
aI108
aI9
aI82
aI55
aI27
aI126
aI67
aI38
aI10
aI111
aI112
aI21
aI57
aI92
aI97
aI4
aI40
aI77
aI29
aI120
aI84
aI49
aI12
aI105
aI69
aI32
aI63
aI90
aI118
aI19
aI46
aI75
aI103
aI2
aI89
aI60
aI16
aI117
aI72
aI45
aI1
aI100
aI123
aI30
aI50
aI87
aI106
aI15
aI35
aI70
aa(lp238
I0
aI102
aI79
aI41
aI29
aI123
aI82
aI52
aI58
aI92
aI117
aI19
aI39
aI65
aI104
aI14
aI116
aI18
aI59
aI93
aI105
aI15
aI38
aI64
aI78
aI40
aI1
aI103
aI83
aI53
aI28
aI122
aI107
aI13
aI36
aI66
aI118
aI16
aI57
aI95
aI81
aI55
aI30
aI120
aI76
aI42
aI3
aI101
aI31
aI121
aI80
aI54
aI2
aI100
aI77
aI43
aI37
aI67
aI106
aI12
aI56
aI94
aI119
aI17
aI85
aI51
aI26
aI124
aI72
aI46
aI7
aI97
aI111
aI9
aI32
aI70
aI114
aI20
aI61
aI91
aI33
aI71
aI110
aI8
aI60
aI90
aI115
aI21
aI27
aI125
aI84
aI50
aI6
aI96
aI73
aI47
aI62
aI88
aI113
aI23
aI35
aI69
aI108
aI10
aI4
aI98
aI75
aI45
aI25
aI127
aI86
aI48
aI74
aI44
aI5
aI99
aI87
aI49
aI24
aI126
aI112
aI22
aI63
aI89
aI109
aI11
aI34
aI68
aa(lp239
I0
aI103
aI77
aI42
aI25
aI126
aI84
aI51
aI50
aI85
aI127
aI24
aI43
aI76
aI102
aI1
aI100
aI3
aI41
aI78
aI125
aI26
aI48
aI87
aI86
aI49
aI27
aI124
aI79
aI40
aI2
aI101
aI75
aI44
aI6
aI97
aI82
aI53
aI31
aI120
aI121
aI30
aI52
aI83
aI96
aI7
aI45
aI74
aI47
aI72
aI98
aI5
aI54
aI81
aI123
aI28
aI29
aI122
aI80
aI55
aI4
aI99
aI73
aI46
aI21
aI114
aI88
aI63
aI12
aI107
aI65
aI38
aI39
aI64
aI106
aI13
aI62
aI89
aI115
aI20
aI113
aI22
aI60
aI91
aI104
aI15
aI37
aI66
aI67
aI36
aI14
aI105
aI90
aI61
aI23
aI112
aI94
aI57
aI19
aI116
aI71
aI32
aI10
aI109
aI108
aI11
aI33
aI70
aI117
aI18
aI56
aI95
aI58
aI93
aI119
aI16
aI35
aI68
aI110
aI9
aI8
aI111
aI69
aI34
aI17
aI118
aI92
aI59
aa(lp240
I0
aI104
aI83
aI59
aI37
aI77
aI118
aI30
aI74
aI34
aI25
aI113
aI111
aI7
aI60
aI84
aI23
aI127
aI68
aI44
aI50
aI90
aI97
aI9
aI93
aI53
aI14
aI102
aI120
aI16
aI43
aI67
aI46
aI70
aI125
aI21
aI11
aI99
aI88
aI48
aI100
aI12
aI55
aI95
aI65
aI41
aI18
aI122
aI57
aI81
aI106
aI2
aI28
aI116
aI79
aI39
aI115
aI27
aI32
aI72
aI86
aI62
aI5
aI109
aI92
aI52
aI15
aI103
aI121
aI17
aI42
aI66
aI22
aI126
aI69
aI45
aI51
aI91
aI96
aI8
aI75
aI35
aI24
aI112
aI110
aI6
aI61
aI85
aI1
aI105
aI82
aI58
aI36
aI76
aI119
aI31
aI114
aI26
aI33
aI73
aI87
aI63
aI4
aI108
aI56
aI80
aI107
aI3
aI29
aI117
aI78
aI38
aI101
aI13
aI54
aI94
aI64
aI40
aI19
aI123
aI47
aI71
aI124
aI20
aI10
aI98
aI89
aI49
aa(lp241
I0
aI105
aI81
aI56
aI33
aI72
aI112
aI25
aI66
aI43
aI19
aI122
aI99
aI10
aI50
aI91
aI7
aI110
aI86
aI63
aI38
aI79
aI119
aI30
aI69
aI44
aI20
aI125
aI100
aI13
aI53
aI92
aI14
aI103
aI95
aI54
aI47
aI70
aI126
aI23
aI76
aI37
aI29
aI116
aI109
aI4
aI60
aI85
aI9
aI96
aI88
aI49
aI40
aI65
aI121
aI16
aI75
aI34
aI26
aI115
aI106
aI3
aI59
aI82
aI28
aI117
aI77
aI36
aI61
aI84
aI108
aI5
aI94
aI55
aI15
aI102
aI127
aI22
aI46
aI71
aI27
aI114
aI74
aI35
aI58
aI83
aI107
aI2
aI89
aI48
aI8
aI97
aI120
aI17
aI41
aI64
aI18
aI123
aI67
aI42
aI51
aI90
aI98
aI11
aI80
aI57
aI1
aI104
aI113
aI24
aI32
aI73
aI21
aI124
aI68
aI45
aI52
aI93
aI101
aI12
aI87
aI62
aI6
aI111
aI118
aI31
aI39
aI78
aa(lp242
I0
aI106
aI87
aI61
aI45
aI71
aI122
aI16
aI90
aI48
aI13
aI103
aI119
aI29
aI32
aI74
aI55
aI93
aI96
aI10
aI26
aI112
aI77
aI39
aI109
aI7
aI58
aI80
aI64
aI42
aI23
aI125
aI110
aI4
aI57
aI83
aI67
aI41
aI20
aI126
aI52
aI94
aI99
aI9
aI25
aI115
aI78
aI36
aI89
aI51
aI14
aI100
aI116
aI30
aI35
aI73
aI3
aI105
aI84
aI62
aI46
aI68
aI121
aI19
aI95
aI53
aI8
aI98
aI114
aI24
aI37
aI79
aI5
aI111
aI82
aI56
aI40
aI66
aI127
aI21
aI104
aI2
aI63
aI85
aI69
aI47
aI18
aI120
aI50
aI88
aI101
aI15
aI31
aI117
aI72
aI34
aI49
aI91
aI102
aI12
aI28
aI118
aI75
aI33
aI107
aI1
aI60
aI86
aI70
aI44
aI17
aI123
aI6
aI108
aI81
aI59
aI43
aI65
aI124
aI22
aI92
aI54
aI11
aI97
aI113
aI27
aI38
aI76
aa(lp243
I0
aI107
aI85
aI62
aI41
aI66
aI124
aI23
aI82
aI57
aI7
aI108
aI123
aI16
aI46
aI69
aI39
aI76
aI114
aI25
aI14
aI101
aI91
aI48
aI117
aI30
aI32
aI75
aI92
aI55
aI9
aI98
aI78
aI37
aI27
aI112
aI103
aI12
aI50
aI89
aI28
aI119
aI73
aI34
aI53
aI94
aI96
aI11
aI105
aI2
aI60
aI87
aI64
aI43
aI21
aI126
aI59
aI80
aI110
aI5
aI18
aI121
aI71
aI44
aI31
aI116
aI74
aI33
aI54
aI93
aI99
aI8
aI77
aI38
aI24
aI115
aI100
aI15
aI49
aI90
aI56
aI83
aI109
aI6
aI17
aI122
aI68
aI47
aI106
aI1
aI63
aI84
aI67
aI40
aI22
aI125
aI81
aI58
aI4
aI111
aI120
aI19
aI45
aI70
aI3
aI104
aI86
aI61
aI42
aI65
aI127
aI20
aI118
aI29
aI35
aI72
aI95
aI52
aI10
aI97
aI36
aI79
aI113
aI26
aI13
aI102
aI88
aI51
aa(lp244
I0
aI108
aI91
aI55
aI53
aI89
aI110
aI2
aI106
aI6
aI49
aI93
aI95
aI51
aI4
aI104
aI87
aI59
aI12
aI96
aI98
aI14
aI57
aI85
aI61
aI81
aI102
aI10
aI8
aI100
aI83
aI63
aI45
aI65
aI118
aI26
aI24
aI116
aI67
aI47
aI71
aI43
aI28
aI112
aI114
aI30
aI41
aI69
aI122
aI22
aI33
aI77
aI79
aI35
aI20
aI120
aI16
aI124
aI75
aI39
aI37
aI73
aI126
aI18
aI90
aI54
aI1
aI109
aI111
aI3
aI52
aI88
aI48
aI92
aI107
aI7
aI5
aI105
aI94
aI50
aI13
aI97
aI86
aI58
aI56
aI84
aI99
aI15
aI103
aI11
aI60
aI80
aI82
aI62
aI9
aI101
aI119
aI27
aI44
aI64
aI66
aI46
aI25
aI117
aI29
aI113
aI70
aI42
aI40
aI68
aI115
aI31
aI32
aI76
aI123
aI23
aI21
aI121
aI78
aI34
aI74
aI38
aI17
aI125
aI127
aI19
aI36
aI72
aa(lp245
I0
aI109
aI89
aI52
aI49
aI92
aI104
aI5
aI98
aI15
aI59
aI86
aI83
aI62
aI10
aI103
aI71
aI42
aI30
aI115
aI118
aI27
aI47
aI66
aI37
aI72
aI124
aI17
aI20
aI121
aI77
aI32
aI13
aI96
aI84
aI57
aI60
aI81
aI101
aI8
aI111
aI2
aI54
aI91
aI94
aI51
aI7
aI106
aI74
aI39
aI19
aI126
aI123
aI22
aI34
aI79
aI40
aI69
aI113
aI28
aI25
aI116
aI64
aI45
aI26
aI119
aI67
aI46
aI43
aI70
aI114
aI31
aI120
aI21
aI33
aI76
aI73
aI36
aI16
aI125
aI93
aI48
aI4
aI105
aI108
aI1
aI53
aI88
aI63
aI82
aI102
aI11
aI14
aI99
aI87
aI58
aI23
aI122
aI78
aI35
aI38
aI75
aI127
aI18
aI117
aI24
aI44
aI65
aI68
aI41
aI29
aI112
aI80
aI61
aI9
aI100
aI97
aI12
aI56
aI85
aI50
aI95
aI107
aI6
aI3
aI110
aI90
aI55
aa(lp246
I0
aI110
aI95
aI49
aI61
aI83
aI98
aI12
aI122
aI20
aI37
aI75
aI71
aI41
aI24
aI118
aI119
aI25
aI40
aI70
aI74
aI36
aI21
aI123
aI13
aI99
aI82
aI60
aI48
aI94
aI111
aI1
aI109
aI3
aI50
aI92
aI80
aI62
aI15
aI97
aI23
aI121
aI72
aI38
aI42
aI68
aI117
aI27
aI26
aI116
aI69
aI43
aI39
aI73
aI120
aI22
aI96
aI14
aI63
aI81
aI93
aI51
aI2
aI108
aI89
aI55
aI6
aI104
aI100
aI10
aI59
aI85
aI35
aI77
aI124
aI18
aI30
aI112
aI65
aI47
aI46
aI64
aI113
aI31
aI19
aI125
aI76
aI34
aI84
aI58
aI11
aI101
aI105
aI7
aI54
aI88
aI52
aI90
aI107
aI5
aI9
aI103
aI86
aI56
aI78
aI32
aI17
aI127
aI115
aI29
aI44
aI66
aI67
aI45
aI28
aI114
aI126
aI16
aI33
aI79
aI57
aI87
aI102
aI8
aI4
aI106
aI91
aI53
aa(lp247
I0
aI111
aI93
aI50
aI57
aI86
aI100
aI11
aI114
aI29
aI47
aI64
aI75
aI36
aI22
aI121
aI103
aI8
aI58
aI85
aI94
aI49
aI3
aI108
aI21
aI122
aI72
aI39
aI44
aI67
aI113
aI30
aI77
aI34
aI16
aI127
aI116
aI27
aI41
aI70
aI63
aI80
aI98
aI13
aI6
aI105
aI91
aI52
aI42
aI69
aI119
aI24
aI19
aI124
aI78
aI33
aI88
aI55
aI5
aI106
aI97
aI14
aI60
aI83
aI25
aI118
aI68
aI43
aI32
aI79
aI125
aI18
aI107
aI4
aI54
aI89
aI82
aI61
aI15
aI96
aI126
aI17
aI35
aI76
aI71
aI40
aI26
aI117
aI12
aI99
aI81
aI62
aI53
aI90
aI104
aI7
aI84
aI59
aI9
aI102
aI109
aI2
aI48
aI95
aI38
aI73
aI123
aI20
aI31
aI112
aI66
aI45
aI51
aI92
aI110
aI1
aI10
aI101
aI87
aI56
aI65
aI46
aI28
aI115
aI120
aI23
aI37
aI74
aa(lp248
I0
aI112
aI99
aI19
aI69
aI53
aI38
aI86
aI9
aI121
aI106
aI26
aI76
aI60
aI47
aI95
aI18
aI98
aI113
aI1
aI87
aI39
aI52
aI68
aI27
aI107
aI120
aI8
aI94
aI46
aI61
aI77
aI36
aI84
aI71
aI55
aI97
aI17
aI2
aI114
aI45
aI93
aI78
aI62
aI104
aI24
aI11
aI123
aI54
aI70
aI85
aI37
aI115
aI3
aI16
aI96
aI63
aI79
aI92
aI44
aI122
aI10
aI25
aI105
aI72
aI56
aI43
aI91
aI13
aI125
aI110
aI30
aI65
aI49
aI34
aI82
aI4
aI116
aI103
aI23
aI90
aI42
aI57
aI73
aI31
aI111
aI124
aI12
aI83
aI35
aI48
aI64
aI22
aI102
aI117
aI5
aI108
aI28
aI15
aI127
aI41
aI89
aI74
aI58
aI101
aI21
aI6
aI118
aI32
aI80
aI67
aI51
aI126
aI14
aI29
aI109
aI59
aI75
aI88
aI40
aI119
aI7
aI20
aI100
aI50
aI66
aI81
aI33
aa(lp249
I0
aI113
aI97
aI16
aI65
aI48
aI32
aI81
aI1
aI112
aI96
aI17
aI64
aI49
aI33
aI80
aI2
aI115
aI99
aI18
aI67
aI50
aI34
aI83
aI3
aI114
aI98
aI19
aI66
aI51
aI35
aI82
aI4
aI117
aI101
aI20
aI69
aI52
aI36
aI85
aI5
aI116
aI100
aI21
aI68
aI53
aI37
aI84
aI6
aI119
aI103
aI22
aI71
aI54
aI38
aI87
aI7
aI118
aI102
aI23
aI70
aI55
aI39
aI86
aI8
aI121
aI105
aI24
aI73
aI56
aI40
aI89
aI9
aI120
aI104
aI25
aI72
aI57
aI41
aI88
aI10
aI123
aI107
aI26
aI75
aI58
aI42
aI91
aI11
aI122
aI106
aI27
aI74
aI59
aI43
aI90
aI12
aI125
aI109
aI28
aI77
aI60
aI44
aI93
aI13
aI124
aI108
aI29
aI76
aI61
aI45
aI92
aI14
aI127
aI111
aI30
aI79
aI62
aI46
aI95
aI15
aI126
aI110
aI31
aI78
aI63
aI47
aI94
aa(lp250
I0
aI114
aI103
aI21
aI77
aI63
aI42
aI88
aI25
aI107
aI126
aI12
aI84
aI38
aI51
aI65
aI50
aI64
aI85
aI39
aI127
aI13
aI24
aI106
aI43
aI89
aI76
aI62
aI102
aI20
aI1
aI115
aI100
aI22
aI3
aI113
aI41
aI91
aI78
aI60
aI125
aI15
aI26
aI104
aI48
aI66
aI87
aI37
aI86
aI36
aI49
aI67
aI27
aI105
aI124
aI14
aI79
aI61
aI40
aI90
aI2
aI112
aI101
aI23
aI75
aI57
aI44
aI94
aI6
aI116
aI97
aI19
aI82
aI32
aI53
aI71
aI31
aI109
aI120
aI10
aI121
aI11
aI30
aI108
aI52
aI70
aI83
aI33
aI96
aI18
aI7
aI117
aI45
aI95
aI74
aI56
aI47
aI93
aI72
aI58
aI98
aI16
aI5
aI119
aI54
aI68
aI81
aI35
aI123
aI9
aI28
aI110
aI29
aI111
aI122
aI8
aI80
aI34
aI55
aI69
aI4
aI118
aI99
aI17
aI73
aI59
aI46
aI92
aa(lp251
I0
aI115
aI101
aI22
aI73
aI58
aI44
aI95
aI17
aI98
aI116
aI7
aI88
aI43
aI61
aI78
aI34
aI81
aI71
aI52
aI107
aI24
aI14
aI125
aI51
aI64
aI86
aI37
aI122
aI9
aI31
aI108
aI68
aI55
aI33
aI82
aI13
aI126
aI104
aI27
aI85
aI38
aI48
aI67
aI28
aI111
aI121
aI10
aI102
aI21
aI3
aI112
aI47
aI92
aI74
aI57
aI119
aI4
aI18
aI97
aI62
aI77
aI91
aI40
aI11
aI120
aI110
aI29
aI66
aI49
aI39
aI84
aI26
aI105
aI127
aI12
aI83
aI32
aI54
aI69
aI41
aI90
aI76
aI63
aI96
aI19
aI5
aI118
aI56
aI75
aI93
aI46
aI113
aI2
aI20
aI103
aI79
aI60
aI42
aI89
aI6
aI117
aI99
aI16
aI94
aI45
aI59
aI72
aI23
aI100
aI114
aI1
aI109
aI30
aI8
aI123
aI36
aI87
aI65
aI50
aI124
aI15
aI25
aI106
aI53
aI70
aI80
aI35
aa(lp252
I0
aI116
aI107
aI31
aI85
aI33
aI62
aI74
aI41
aI93
aI66
aI54
aI124
aI8
aI23
aI99
aI82
aI38
aI57
aI77
aI7
aI115
aI108
aI24
aI123
aI15
aI16
aI100
aI46
aI90
aI69
aI49
aI39
aI83
aI76
aI56
aI114
aI6
aI25
aI109
aI14
aI122
aI101
aI17
aI91
aI47
aI48
aI68
aI117
aI1
aI30
aI106
aI32
aI84
aI75
aI63
aI92
aI40
aI55
aI67
aI9
aI125
aI98
aI22
aI78
aI58
aI37
aI81
aI27
aI111
aI112
aI4
aI103
aI19
aI12
aI120
aI50
aI70
aI89
aI45
aI28
aI104
aI119
aI3
aI73
aI61
aI34
aI86
aI53
aI65
aI94
aI42
aI96
aI20
aI11
aI127
aI105
aI29
aI2
aI118
aI60
aI72
aI87
aI35
aI64
aI52
aI43
aI95
aI21
aI97
aI126
aI10
aI59
aI79
aI80
aI36
aI110
aI26
aI5
aI113
aI18
aI102
aI121
aI13
aI71
aI51
aI44
aI88
aa(lp253
I0
aI117
aI105
aI28
aI81
aI36
aI56
aI77
aI33
aI84
aI72
aI61
aI112
aI5
aI25
aI108
aI66
aI55
aI43
aI94
aI19
aI102
aI122
aI15
aI99
aI22
aI10
aI127
aI50
aI71
aI91
aI46
aI7
aI114
aI110
aI27
aI86
aI35
aI63
aI74
aI38
aI83
aI79
aI58
aI119
aI2
aI30
aI107
aI69
aI48
aI44
aI89
aI20
aI97
aI125
aI8
aI100
aI17
aI13
aI120
aI53
aI64
aI92
aI41
aI14
aI123
aI103
aI18
aI95
aI42
aI54
aI67
aI47
aI90
aI70
aI51
aI126
aI11
aI23
aI98
aI76
aI57
aI37
aI80
aI29
aI104
aI116
aI1
aI109
aI24
aI4
aI113
aI60
aI73
aI85
aI32
aI9
aI124
aI96
aI21
aI88
aI45
aI49
aI68
aI40
aI93
aI65
aI52
aI121
aI12
aI16
aI101
aI75
aI62
aI34
aI87
aI26
aI111
aI115
aI6
aI106
aI31
aI3
aI118
aI59
aI78
aI82
aI39
aa(lp254
I0
aI118
aI111
aI25
aI93
aI43
aI50
aI68
aI57
aI79
aI86
aI32
aI100
aI18
aI11
aI125
aI114
aI4
aI29
aI107
aI47
aI89
aI64
aI54
aI75
aI61
aI36
aI82
aI22
aI96
aI121
aI15
aI103
aI17
aI8
aI126
aI58
aI76
aI85
aI35
aI94
aI40
aI49
aI71
aI3
aI117
aI108
aI26
aI21
aI99
aI122
aI12
aI72
aI62
aI39
aI81
aI44
aI90
aI67
aI53
aI113
aI7
aI30
aI104
aI77
aI59
aI34
aI84
aI16
aI102
aI127
aI9
aI116
aI2
aI27
aI109
aI41
aI95
aI70
aI48
aI63
aI73
aI80
aI38
aI98
aI20
aI13
aI123
aI6
aI112
aI105
aI31
aI91
aI45
aI52
aI66
aI42
aI92
aI69
aI51
aI119
aI1
aI24
aI110
aI19
aI101
aI124
aI10
aI78
aI56
aI33
aI87
aI88
aI46
aI55
aI65
aI5
aI115
aI106
aI28
aI97
aI23
aI14
aI120
aI60
aI74
aI83
aI37
aa(lp255
I0
aI119
aI109
aI26
aI89
aI46
aI52
aI67
aI49
aI70
aI92
aI43
aI104
aI31
aI5
aI114
aI98
aI21
aI15
aI120
aI59
aI76
aI86
aI33
aI83
aI36
aI62
aI73
aI10
aI125
aI103
aI16
aI71
aI48
aI42
aI93
aI30
aI105
aI115
aI4
aI118
aI1
aI27
aI108
aI47
aI88
aI66
aI53
aI37
aI82
aI72
aI63
aI124
aI11
aI17
aI102
aI20
aI99
aI121
aI14
aI77
aI58
aI32
aI87
aI13
aI122
aI96
aI23
aI84
aI35
aI57
aI78
aI60
aI75
aI81
aI38
aI101
aI18
aI8
aI127
aI111
aI24
aI2
aI117
aI54
aI65
aI91
aI44
aI94
aI41
aI51
aI68
aI7
aI112
aI106
aI29
aI74
aI61
aI39
aI80
aI19
aI100
aI126
aI9
aI123
aI12
aI22
aI97
aI34
aI85
aI79
aI56
aI40
aI95
aI69
aI50
aI113
aI6
aI28
aI107
aI25
aI110
aI116
aI3
aI64
aI55
aI45
aI90
aa(lp256
I0
aI120
aI115
aI11
aI101
aI29
aI22
aI110
aI73
aI49
aI58
aI66
aI44
aI84
aI95
aI39
aI17
aI105
aI98
aI26
aI116
aI12
aI7
aI127
aI88
aI32
aI43
aI83
aI61
aI69
aI78
aI54
aI34
aI90
aI81
aI41
aI71
aI63
aI52
aI76
aI107
aI19
aI24
aI96
aI14
aI118
aI125
aI5
aI51
aI75
aI64
aI56
aI86
aI46
aI37
aI93
aI122
aI2
aI9
aI113
aI31
aI103
aI108
aI20
aI68
aI60
aI55
aI79
aI33
aI89
aI82
aI42
aI13
aI117
aI126
aI6
aI104
aI16
aI27
aI99
aI85
aI45
aI38
aI94
aI48
aI72
aI67
aI59
aI28
aI100
aI111
aI23
aI121
aI1
aI10
aI114
aI102
aI30
aI21
aI109
aI3
aI123
aI112
aI8
aI47
aI87
aI92
aI36
aI74
aI50
aI57
aI65
aI119
aI15
aI4
aI124
aI18
aI106
aI97
aI25
aI62
aI70
aI77
aI53
aI91
aI35
aI40
aI80
aa(lp257
I0
aI121
aI113
aI8
aI97
aI24
aI16
aI105
aI65
aI56
aI48
aI73
aI32
aI89
aI81
aI40
aI1
aI120
aI112
aI9
aI96
aI25
aI17
aI104
aI64
aI57
aI49
aI72
aI33
aI88
aI80
aI41
aI2
aI123
aI115
aI10
aI99
aI26
aI18
aI107
aI67
aI58
aI50
aI75
aI34
aI91
aI83
aI42
aI3
aI122
aI114
aI11
aI98
aI27
aI19
aI106
aI66
aI59
aI51
aI74
aI35
aI90
aI82
aI43
aI4
aI125
aI117
aI12
aI101
aI28
aI20
aI109
aI69
aI60
aI52
aI77
aI36
aI93
aI85
aI44
aI5
aI124
aI116
aI13
aI100
aI29
aI21
aI108
aI68
aI61
aI53
aI76
aI37
aI92
aI84
aI45
aI6
aI127
aI119
aI14
aI103
aI30
aI22
aI111
aI71
aI62
aI54
aI79
aI38
aI95
aI87
aI46
aI7
aI126
aI118
aI15
aI102
aI31
aI23
aI110
aI70
aI63
aI55
aI78
aI39
aI94
aI86
aI47
aa(lp258
I0
aI122
aI119
aI13
aI109
aI23
aI26
aI96
aI89
aI35
aI46
aI84
aI52
aI78
aI67
aI57
aI49
aI75
aI70
aI60
aI92
aI38
aI43
aI81
aI104
aI18
aI31
aI101
aI5
aI127
aI114
aI8
aI98
aI24
aI21
aI111
aI15
aI117
aI120
aI2
aI59
aI65
aI76
aI54
aI86
aI44
aI33
aI91
aI83
aI41
aI36
aI94
aI62
aI68
aI73
aI51
aI10
aI112
aI125
aI7
aI103
aI29
aI16
aI106
aI71
aI61
aI48
aI74
aI42
aI80
aI93
aI39
aI30
aI100
aI105
aI19
aI115
aI9
aI4
aI126
aI118
aI12
aI1
aI123
aI27
aI97
aI108
aI22
aI47
aI85
aI88
aI34
aI66
aI56
aI53
aI79
aI37
aI95
aI82
aI40
aI72
aI50
aI63
aI69
aI124
aI6
aI11
aI113
aI17
aI107
aI102
aI28
aI20
aI110
aI99
aI25
aI121
aI3
aI14
aI116
aI77
aI55
aI58
aI64
aI32
aI90
aI87
aI45
aa(lp259
I0
aI123
aI117
aI14
aI105
aI18
aI28
aI103
aI81
aI42
aI36
aI95
aI56
aI67
aI77
aI54
aI33
aI90
aI84
aI47
aI72
aI51
aI61
aI70
aI112
aI11
aI5
aI126
aI25
aI98
aI108
aI23
aI66
aI57
aI55
aI76
aI43
aI80
aI94
aI37
aI19
aI104
aI102
aI29
aI122
aI1
aI15
aI116
aI99
aI24
aI22
aI109
aI10
aI113
aI127
aI4
aI50
aI73
aI71
aI60
aI91
aI32
aI46
aI85
aI7
aI124
aI114
aI9
aI110
aI21
aI27
aI96
aI86
aI45
aI35
aI88
aI63
aI68
aI74
aI49
aI38
aI93
aI83
aI40
aI79
aI52
aI58
aI65
aI119
aI12
aI2
aI121
aI30
aI101
aI107
aI16
aI69
aI62
aI48
aI75
aI44
aI87
aI89
aI34
aI20
aI111
aI97
aI26
aI125
aI6
aI8
aI115
aI100
aI31
aI17
aI106
aI13
aI118
aI120
aI3
aI53
aI78
aI64
aI59
aI92
aI39
aI41
aI82
aa(lp260
I0
aI124
aI123
aI7
aI117
aI9
aI14
aI114
aI105
aI21
aI18
aI110
aI28
aI96
aI103
aI27
aI81
aI45
aI42
aI86
aI36
aI88
aI95
aI35
aI56
aI68
aI67
aI63
aI77
aI49
aI54
aI74
aI33
aI93
aI90
aI38
aI84
aI40
aI47
aI83
aI72
aI52
aI51
aI79
aI61
aI65
aI70
aI58
aI112
aI12
aI11
aI119
aI5
aI121
aI126
aI2
aI25
aI101
aI98
aI30
aI108
aI16
aI23
aI107
aI66
aI62
aI57
aI69
aI55
aI75
aI76
aI48
aI43
aI87
aI80
aI44
aI94
aI34
aI37
aI89
aI19
aI111
aI104
aI20
aI102
aI26
aI29
aI97
aI122
aI6
aI1
aI125
aI15
aI115
aI116
aI8
aI99
aI31
aI24
aI100
aI22
aI106
aI109
aI17
aI10
aI118
aI113
aI13
aI127
aI3
aI4
aI120
aI50
aI78
aI73
aI53
aI71
aI59
aI60
aI64
aI91
aI39
aI32
aI92
aI46
aI82
aI85
aI41
aa(lp261
I0
aI125
aI121
aI4
aI113
aI12
aI8
aI117
aI97
aI28
aI24
aI101
aI16
aI109
aI105
aI20
aI65
aI60
aI56
aI69
aI48
aI77
aI73
aI52
aI32
aI93
aI89
aI36
aI81
aI44
aI40
aI85
aI1
aI124
aI120
aI5
aI112
aI13
aI9
aI116
aI96
aI29
aI25
aI100
aI17
aI108
aI104
aI21
aI64
aI61
aI57
aI68
aI49
aI76
aI72
aI53
aI33
aI92
aI88
aI37
aI80
aI45
aI41
aI84
aI2
aI127
aI123
aI6
aI115
aI14
aI10
aI119
aI99
aI30
aI26
aI103
aI18
aI111
aI107
aI22
aI67
aI62
aI58
aI71
aI50
aI79
aI75
aI54
aI34
aI95
aI91
aI38
aI83
aI46
aI42
aI87
aI3
aI126
aI122
aI7
aI114
aI15
aI11
aI118
aI98
aI31
aI27
aI102
aI19
aI110
aI106
aI23
aI66
aI63
aI59
aI70
aI51
aI78
aI74
aI55
aI35
aI94
aI90
aI39
aI82
aI47
aI43
aI86
aa(lp262
I0
aI126
aI127
aI1
aI125
aI3
aI2
aI124
aI121
aI7
aI6
aI120
aI4
aI122
aI123
aI5
aI113
aI15
aI14
aI112
aI12
aI114
aI115
aI13
aI8
aI118
aI119
aI9
aI117
aI11
aI10
aI116
aI97
aI31
aI30
aI96
aI28
aI98
aI99
aI29
aI24
aI102
aI103
aI25
aI101
aI27
aI26
aI100
aI16
aI110
aI111
aI17
aI109
aI19
aI18
aI108
aI105
aI23
aI22
aI104
aI20
aI106
aI107
aI21
aI65
aI63
aI62
aI64
aI60
aI66
aI67
aI61
aI56
aI70
aI71
aI57
aI69
aI59
aI58
aI68
aI48
aI78
aI79
aI49
aI77
aI51
aI50
aI76
aI73
aI55
aI54
aI72
aI52
aI74
aI75
aI53
aI32
aI94
aI95
aI33
aI93
aI35
aI34
aI92
aI89
aI39
aI38
aI88
aI36
aI90
aI91
aI37
aI81
aI47
aI46
aI80
aI44
aI82
aI83
aI45
aI40
aI86
aI87
aI41
aI85
aI43
aI42
aI84
aa(lp263
I0
aI127
aI125
aI2
aI121
aI6
aI4
aI123
aI113
aI14
aI12
aI115
aI8
aI119
aI117
aI10
aI97
aI30
aI28
aI99
aI24
aI103
aI101
aI26
aI16
aI111
aI109
aI18
aI105
aI22
aI20
aI107
aI65
aI62
aI60
aI67
aI56
aI71
aI69
aI58
aI48
aI79
aI77
aI50
aI73
aI54
aI52
aI75
aI32
aI95
aI93
aI34
aI89
aI38
aI36
aI91
aI81
aI46
aI44
aI83
aI40
aI87
aI85
aI42
aI1
aI126
aI124
aI3
aI120
aI7
aI5
aI122
aI112
aI15
aI13
aI114
aI9
aI118
aI116
aI11
aI96
aI31
aI29
aI98
aI25
aI102
aI100
aI27
aI17
aI110
aI108
aI19
aI104
aI23
aI21
aI106
aI64
aI63
aI61
aI66
aI57
aI70
aI68
aI59
aI49
aI78
aI76
aI51
aI72
aI55
aI53
aI74
aI33
aI94
aI92
aI35
aI88
aI39
aI37
aI90
aI80
aI47
aI45
aI82
aI41
aI86
aI84
aI43
aasb.